L251 LINKER/LOCATER V4.66.93.0                                                          06/14/2026  09:42:26  PAGE 1


L251 LINKER/LOCATER V4.66.93.0, INVOKED BY:
C:\KEIL_V5\C251\BIN\L251.EXE .\list\main.obj, .\list\STC32G_GPIO.obj, .\list\STC32G_NVIC.obj, .\list\STC32G_PWM.obj, .\l
>> ist\STC32G_PWM_Isr.obj, .\list\STC32G_Timer.obj, .\list\STC32G_Timer_Isr.obj, .\list\STC32G_Delay.obj, .\list\font.ob
>> j, .\list\oled.obj, .\list\iic.obj, .\list\STC32G_Soft_I2C.obj TO .\list\PWM PRINT (.\list\PWM.map) CASE REMOVEUNUSED
>>  CLASSES (EDATA (0X0-0XFFF), HDATA (0X0-0XFFF))


CPU MODE:     251 SOURCE MODE
INTR FRAME:   2 BYTES SAVED ON INTERRUPT
MEMORY MODEL: XSMALL


INPUT MODULES INCLUDED:
  .\list\main.obj (main)
         COMMENT TYPE 0: C251 V5.60.0
  .\list\STC32G_GPIO.obj (STC32G_GPIO)
         COMMENT TYPE 0: C251 V5.60.0
  .\list\STC32G_NVIC.obj (STC32G_NVIC)
         COMMENT TYPE 0: C251 V5.60.0
  .\list\STC32G_PWM.obj (STC32G_PWM)
         COMMENT TYPE 0: C251 V5.60.0
  .\list\STC32G_PWM_Isr.obj (STC32G_PWM_Isr)
         COMMENT TYPE 0: C251 V5.60.0
  .\list\STC32G_Timer.obj (STC32G_Timer)
         COMMENT TYPE 0: C251 V5.60.0
  .\list\STC32G_Timer_Isr.obj (STC32G_Timer_Isr)
         COMMENT TYPE 0: C251 V5.60.0
  .\list\STC32G_Delay.obj (STC32G_Delay)
         COMMENT TYPE 0: C251 V5.60.0
  .\list\font.obj (font)
         COMMENT TYPE 0: C251 V5.60.0
  .\list\oled.obj (oled)
         COMMENT TYPE 0: C251 V5.60.0
  .\list\iic.obj (iic)
         COMMENT TYPE 0: C251 V5.60.0
  .\list\STC32G_Soft_I2C.obj (STC32G_Soft_I2C)
         COMMENT TYPE 0: C251 V5.60.0
  C:\KEIL_V5\C251\LIB\C2SXS.LIB (?C_START)
         COMMENT TYPE 0: A251 V4.69.6.0
  C:\KEIL_V5\C251\LIB\C2SXS.LIB (?C?INITEDATA)
         COMMENT TYPE 0: A251 V4.69.6.0
  C:\KEIL_V5\C251\LIB\C2SXS.LIB (?C?SIDIV)
         COMMENT TYPE 0: A251 V4.69.6.0
  C:\KEIL_V5\C251\LIB\C2SXS.LIB (?C?LIMUL)
         COMMENT TYPE 0: A251 V4.69.6.0
  C:\KEIL_V5\C251\LIB\C2SXS.LIB (?C?SLDIV)
         COMMENT TYPE 0: A251 V4.69.6.0
  C:\KEIL_V5\C251\LIB\C2SXS.LIB (?C?INITEDATA_END)
         COMMENT TYPE 0: A251 V4.69.6.0
  C:\KEIL_V5\C251\LIB\C2SXS.LIB (?C?ULDIV)
         COMMENT TYPE 0: A251 V4.69.6.0


ACTIVE MEMORY CLASSES OF MODULE:  .\list\PWM (main)

BASE        START       END         USED      MEMORY CLASS
==========================================================
000000H     000000H     000FFFH     000148H   EDATA
000000H     000000H     000FFFH               HDATA
FF0000H     FF0000H     FFFFFFH     002091H   CODE
000020H.0   000020H.0   00002FH.7   000001H.6 BIT
000000H     FF0000H     FFFFFFH     000083H   HCONST
000000H     000000H     00007FH     000008H   DATA


MEMORY MAP OF MODULE:  .\list\PWM (main)
L251 LINKER/LOCATER V4.66.93.0                                                        06/14/2026  09:42:26  PAGE 2




START     STOP      LENGTH    ALIGN  RELOC    MEMORY CLASS   SEGMENT NAME
=========================================================================
000000H   000007H   000008H   ---    AT..     DATA           "REG BANK 0"
000008H   000012H   00000BH   BYTE   UNIT     EDATA          _EDATA_GROUP_
000013H.0 00001FH.7 00000DH.0 ---    ---      **GAP**
000020H.0 000021H.3 000001H.4 BIT    UNIT     BIT            ?BI?MAIN
000021H.4 000021H.4 000000H.1 BIT    UNIT     BIT            ?BI?STC32G_TIMER_ISR
000021H.5 000021H.5 000000H.1 BIT    UNIT     BIT            _BIT_GROUP_
000021H.6 000021H   000000H.2 ---    ---      **GAP**
000022H   00005EH   00003DH   BYTE   UNIT     EDATA          ?ED?MAIN
00005FH   00015EH   000100H   BYTE   UNIT     EDATA          ?STACK
00015FH   FEFFFFH   FEFEA1H   ---    ---      **GAP**
FF0000H   FF0002H   000003H   ---    OFFS..   CODE           ?CO?start251?4
FF0003H   FF0009H   000007H   BYTE   INSEG    CODE           ?PR?TIMER3_ISR_HANDLER?STC32G_TIMER_ISR
FF000AH   FF000AH   000001H   ---    ---      **GAP**
FF000BH   FF000DH   000003H   ---    OFFS..   CODE           ?PR?IV?1
FF000EH   FF0014H   000007H   BYTE   INSEG    CODE           ?PR?TIMER4_ISR_HANDLER?STC32G_TIMER_ISR
FF0015H   FF0017H   000003H   BYTE   INSEG    CODE           ?PR?TIMER0_ISR_HANDLER?STC32G_TIMER_ISR
FF0018H   FF001AH   000003H   ---    ---      **GAP**
FF001BH   FF001DH   000003H   ---    OFFS..   CODE           ?PR?IV?3
FF001EH   FF0056H   000039H   BYTE   INSEG    CODE           ?PR?HANDLESPECIALLINESTATE?MAIN
FF0057H   FF0062H   00000CH   ---    ---      **GAP**
FF0063H   FF0065H   000003H   ---    OFFS..   CODE           ?PR?IV?12
FF0066H   FF0097H   000032H   BYTE   INSEG    CODE           ?PR?TIMER2_CONFIG?MAIN
FF0098H   FF009AH   000003H   ---    ---      **GAP**
FF009BH   FF009DH   000003H   ---    OFFS..   CODE           ?PR?IV?19
FF009EH   FF00A2H   000005H   ---    ---      **GAP**
FF00A3H   FF00A5H   000003H   ---    OFFS..   CODE           ?PR?IV?20
FF00A6H   FF00D0H   00002BH   BYTE   INSEG    CODE           ?PR?OLED_CLEAR?OLED
FF00D1H   FF00D2H   000002H   ---    ---      **GAP**
FF00D3H   FF00D5H   000003H   ---    OFFS..   CODE           ?PR?IV?26
FF00D6H   FF00DAH   000005H   ---    ---      **GAP**
FF00DBH   FF00DDH   000003H   ---    OFFS..   CODE           ?PR?IV?27
FF00DEH   FF0D75H   000C98H   BYTE   UNIT     CODE           ?CO?FONT
FF0D76H   FF138FH   00061AH   BYTE   INSEG    CODE           ?PR?PWM_CONFIGURATION?STC32G_PWM
FF1390H   FF15A8H   000219H   BYTE   INSEG    CODE           ?PR?TIMER_INILIZE?STC32G_TIMER
FF15A9H   FF1723H   00017BH   BYTE   INSEG    CODE           ?PR?UPDATEPWM?STC32G_PWM
FF1724H   FF181CH   0000F9H   BYTE   INSEG    CODE           ?PR?TIMER2_ISR_HANDLER?MAIN
FF181DH   FF18DEH   0000C2H   BYTE   UNIT     CODE           ?C?LIB_CODE
FF18DFH   FF1974H   000096H   BYTE   INSEG    CODE           ?PR?NVIC_PWM_INIT?STC32G_NVIC
FF1975H   FF1A06H   000092H   BYTE   INSEG    CODE           ?PR?OLED_INIT?OLED
FF1A07H   FF1A8BH   000085H   BYTE   INSEG    CODE           ?PR?PWMA_ISR_HANDLER?STC32G_PWM_ISR
FF1A8CH   FF1B10H   000085H   BYTE   INSEG    CODE           ?PR?PWMB_ISR_HANDLER?STC32G_PWM_ISR
FF1B11H   FF1B8BH   00007BH   BYTE   INSEG    CODE           ?PR?PWM_CONFIG?MAIN
FF1B8CH   FF1BFFH   000074H   BYTE   INSEG    CODE           ?PR?MOTOR_RUNPERCENT?MAIN
FF1C00H   FF1C6AH   00006BH   BYTE   INSEG    CODE           ?PR?LINEPIDUPDATE?MAIN
FF1C6BH   FF1CBFH   000055H   BYTE   INSEG    CODE           ?PR?MAIN?MAIN
FF1CC0H   FF1CD2H   000013H   BYTE   UNIT     CODE           ?C_C51STARTUP
FF1CD3H   FF1CE6H   000014H   BYTE   UNIT     CODE           ?C_C51STARTUP?1
FF1CE7H   FF1D0FH   000029H   BYTE   UNIT     CODE           ?C_C51STARTUP?2
FF1D10H   FF1D12H   000003H   BYTE   UNIT     CODE           ?C_C51STARTUP?3
FF1D13H   FF1D61H   00004FH   BYTE   INSEG    CODE           ?PR?LINECONTROLSTEP?MAIN
FF1D62H   FF1DABH   00004AH   BYTE   INSEG    CODE           ?PR?COMPUTELINEERROR?MAIN
FF1DACH   FF1DF3H   000048H   BYTE   INSEG    CODE           ?PR?NVIC_TIMER0_INIT?STC32G_NVIC
FF1DF4H   FF1E3BH   000048H   BYTE   INSEG    CODE           ?PR?NVIC_TIMER1_INIT?STC32G_NVIC
FF1E3CH   FF1E6CH   000031H   BYTE   INSEG    CODE           ?PR?TIMER_CONFIG?MAIN
FF1E6DH   FF1E9CH   000030H   BYTE   INSEG    CODE           ?PR?TIMER1_CONFIG?MAIN
FF1E9DH   FF1EC5H   000029H   BYTE   INSEG    CODE           ?PR?LINELOSTSEARCH?MAIN
FF1EC6H   FF1EEDH   000028H   BYTE   INSEG    CODE           ?PR?UPDATETSTATE?MAIN
FF1EEEH   FF1F12H   000025H   BYTE   INSEG    CODE           ?PR?OLED_IIC_SENDDATA?OLED
FF1F13H   FF1F36H   000024H   BYTE   INSEG    CODE           ?PR?UPDATETTIMEACTION?MAIN
FF1F37H   FF1F5AH   000024H   BYTE   INSEG    CODE           ?PR?OLED_IIC_SENDCOMMAND?OLED
FF1F5BH   FF1F7BH   000021H   BYTE   INSEG    CODE           ?PR?IIC_SENDDATA?IIC
L251 LINKER/LOCATER V4.66.93.0                                                        06/14/2026  09:42:26  PAGE 3


FF1F7CH   FF1F96H   00001BH   BYTE   INSEG    CODE           ?PR?READLINEMASK?MAIN
FF1F97H   FF1FB0H   00001AH   BYTE   INSEG    CODE           ?PR?NVIC_TIMER2_INIT?STC32G_NVIC
FF1FB1H   FF1FC9H   000019H   BYTE   INSEG    CODE           ?PR?ISTSTATEMASK?MAIN
FF1FCAH   FF1FE1H   000018H   BYTE   INSEG    CODE           ?PR?PWM_RUN?MAIN
FF1FE2H   FF1FF9H   000018H   BYTE   INSEG    CODE           ?PR?IIC_START?IIC
FF1FFAH   FF2010H   000017H   BYTE   INSEG    CODE           ?PR?DELAY_MS?STC32G_DELAY
FF2011H   FF2026H   000016H   BYTE   INSEG    CODE           ?PR?TIMER1_ISR_HANDLER?MAIN
FF2027H   FF203BH   000015H   BYTE   INSEG    CODE           ?PR?IIC_INIT?IIC
FF203CH   FF2050H   000015H   BYTE   INSEG    CODE           ?PR?IIC_STOP?IIC
FF2051H   FF2064H   000014H   BYTE   INSEG    CODE           ?PR?LIMITPERCENT?MAIN
FF2065H   FF2077H   000013H   BYTE   INSEG    CODE           ?PR?PWM_RIGHT?MAIN
FF2078H   FF208AH   000013H   BYTE   INSEG    CODE           ?PR?PWM_LEFT?MAIN
FF208BH   FF209DH   000013H   BYTE   INSEG    CODE           ?PR?IIC_WAIT_ACK?IIC
FF209EH   FF20AFH   000012H   BYTE   INSEG    CODE           ?PR?APPLYLINEPID?MAIN
FF20B0H   FF2132H   000083H   BYTE   UNIT     HCONST         ?C_INITEDATA

* * * * * * * * *   R E M O V E D     S E G M E N T S   * * * * * * * *
   *DEL*:           000001H   BYTE   INSEG    CODE           ?PR?GPIO_CONFIG?MAIN
   *DEL*:           000044H   BYTE   INSEG    CODE           ?PR?TEST01?MAIN
   *DEL*:           000049H   BYTE   INSEG    CODE           ?PR?ULTRASONIC_GETDISTANCE?MAIN
   *DEL*:           000009H   BYTE   INSEG    CODE           ?PR?MOTOR_SETFORWARD?MAIN
   *DEL*:           000256H   BYTE   INSEG    CODE           ?PR?GPIO_INILIZE?STC32G_GPIO
   *DEL*:           00004CH   BYTE   INSEG    CODE           ?PR?NVIC_DMA_ADC_INIT?STC32G_NVIC
   *DEL*:           00004CH   BYTE   INSEG    CODE           ?PR?NVIC_DMA_M2M_INIT?STC32G_NVIC
   *DEL*:           00004CH   BYTE   INSEG    CODE           ?PR?NVIC_DMA_LCM_INIT?STC32G_NVIC
   *DEL*:           000048H   BYTE   INSEG    CODE           ?PR?NVIC_INT0_INIT?STC32G_NVIC
   *DEL*:           000048H   BYTE   INSEG    CODE           ?PR?NVIC_INT1_INIT?STC32G_NVIC
   *DEL*:           00001AH   BYTE   INSEG    CODE           ?PR?NVIC_INT2_INIT?STC32G_NVIC
   *DEL*:           00001AH   BYTE   INSEG    CODE           ?PR?NVIC_INT3_INIT?STC32G_NVIC
   *DEL*:           00004CH   BYTE   INSEG    CODE           ?PR?NVIC_DMA_SPI_INIT?STC32G_NVIC
   *DEL*:           00001AH   BYTE   INSEG    CODE           ?PR?NVIC_INT4_INIT?STC32G_NVIC
   *DEL*:           00001AH   BYTE   INSEG    CODE           ?PR?NVIC_TIMER3_INIT?STC32G_NVIC
   *DEL*:           00001AH   BYTE   INSEG    CODE           ?PR?NVIC_TIMER4_INIT?STC32G_NVIC
   *DEL*:           000082H   BYTE   INSEG    CODE           ?PR?NVIC_I2C_INIT?STC32G_NVIC
   *DEL*:           00004CH   BYTE   INSEG    CODE           ?PR?NVIC_DMA_I2CR_INIT?STC32G_NVIC
   *DEL*:           00004CH   BYTE   INSEG    CODE           ?PR?NVIC_DMA_I2CT_INIT?STC32G_NVIC
   *DEL*:           000048H   BYTE   INSEG    CODE           ?PR?NVIC_ADC_INIT?STC32G_NVIC
   *DEL*:           00004CH   BYTE   INSEG    CODE           ?PR?NVIC_DMA_UART1_RX_INIT?STC32G_NVIC
   *DEL*:           00004CH   BYTE   INSEG    CODE           ?PR?NVIC_DMA_UART2_RX_INIT?STC32G_NVIC
   *DEL*:           00004CH   BYTE   INSEG    CODE           ?PR?NVIC_DMA_UART3_RX_INIT?STC32G_NVIC
   *DEL*:           00004CH   BYTE   INSEG    CODE           ?PR?NVIC_DMA_UART1_TX_INIT?STC32G_NVIC
   *DEL*:           00004CH   BYTE   INSEG    CODE           ?PR?NVIC_DMA_UART4_RX_INIT?STC32G_NVIC
   *DEL*:           00004CH   BYTE   INSEG    CODE           ?PR?NVIC_DMA_UART2_TX_INIT?STC32G_NVIC
   *DEL*:           00004CH   BYTE   INSEG    CODE           ?PR?NVIC_DMA_UART3_TX_INIT?STC32G_NVIC
   *DEL*:           00008BH   BYTE   INSEG    CODE           ?PR?NVIC_CAN_INIT?STC32G_NVIC
   *DEL*:           00004CH   BYTE   INSEG    CODE           ?PR?NVIC_DMA_UART4_TX_INIT?STC32G_NVIC
   *DEL*:           00003CH   BYTE   INSEG    CODE           ?PR?NVIC_LCM_INIT?STC32G_NVIC
   *DEL*:           000053H   BYTE   INSEG    CODE           ?PR?NVIC_CMP_INIT?STC32G_NVIC
   *DEL*:           00004EH   BYTE   INSEG    CODE           ?PR?NVIC_LIN_INIT?STC32G_NVIC
   *DEL*:           000046H   BYTE   INSEG    CODE           ?PR?NVIC_RTC_INIT?STC32G_NVIC
   *DEL*:           00004EH   BYTE   INSEG    CODE           ?PR?NVIC_SPI_INIT?STC32G_NVIC
   *DEL*:           000048H   BYTE   INSEG    CODE           ?PR?NVIC_UART1_INIT?STC32G_NVIC
   *DEL*:           00004EH   BYTE   INSEG    CODE           ?PR?NVIC_UART2_INIT?STC32G_NVIC
   *DEL*:           00004EH   BYTE   INSEG    CODE           ?PR?NVIC_UART3_INIT?STC32G_NVIC
   *DEL*:           00004EH   BYTE   INSEG    CODE           ?PR?NVIC_UART4_INIT?STC32G_NVIC
   *DEL*:           000031H   BYTE   INSEG    CODE           ?PR?READPWMA?STC32G_PWM
   *DEL*:           000031H   BYTE   INSEG    CODE           ?PR?READPWMB?STC32G_PWM
   *DEL*:           000174H   BYTE   INSEG    CODE           ?PR?UPDATEHSPWM?STC32G_PWM
   *DEL*:           000025H   BYTE   INSEG    CODE           ?PR?WRITEPWMA?STC32G_PWM
   *DEL*:           000025H   BYTE   INSEG    CODE           ?PR?WRITEPWMB?STC32G_PWM
   *DEL*:           000424H   BYTE   INSEG    CODE           ?PR?HSPWM_CONFIGURATION?STC32G_PWM
   *DEL*:           000007H   BYTE   UNIT     EDATA          ?ED?HSPWM_CONFIGURATION?STC32G_PWM
   *DEL*:           00009AH   BYTE   INSEG    CODE           ?PR?OLED_SHOWBMP?OLED
   *DEL*:           00000FH   BYTE   INSEG    CODE           ?PR?OLED_DISPLAY_OFF?OLED
   *DEL*:           0000BBH   BYTE   INSEG    CODE           ?PR?OLED_SHOWCHAR?OLED
L251 LINKER/LOCATER V4.66.93.0                                                        06/14/2026  09:42:26  PAGE 4


   *DEL*:           000069H   BYTE   INSEG    CODE           ?PR?OLED_SHOWCN?OLED
   *DEL*:           00001BH   BYTE   INSEG    CODE           ?PR?OLED_POW?OLED
   *DEL*:           000032H   BYTE   INSEG    CODE           ?PR?OLED_ALLFILL?OLED
   *DEL*:           000080H   BYTE   INSEG    CODE           ?PR?OLED_SHOWNUM?OLED
   *DEL*:           00000FH   BYTE   INSEG    CODE           ?PR?OLED_DISPLAY_ON?OLED
   *DEL*:           00008EH   BYTE   INSEG    CODE           ?PR?OLED_SHOWSTR?OLED
   *DEL*:           000021H   BYTE   INSEG    CODE           ?PR?OLED_SETPOS?OLED
   *DEL*:           000004H   BYTE   UNIT     EDATA          ?ED?OLED_SHOWNUM?OLED
   *DEL*:           000001H   BYTE   UNIT     EDATA          ?ED?OLED_SHOWCHAR?OLED
   *DEL*:           000003H   BYTE   UNIT     EDATA          ?ED?OLED_SHOWSTR?OLED
   *DEL*:           000007H   BYTE   UNIT     EDATA          ?ED?OLED_SHOWBMP?OLED
   *DEL*:           00001FH   BYTE   INSEG    CODE           ?PR?IIC_READDATA?IIC
   *DEL*:           00000AH   BYTE   INSEG    CODE           ?PR?IIC_ACK?IIC
   *DEL*:           000010H   BYTE   INSEG    CODE           ?PR?IIC_NACK?IIC
   *DEL*:           00000FH   BYTE   INSEG    CODE           ?PR?S_ACK?STC32G_SOFT_I2C
   *DEL*:           00004CH   BYTE   INSEG    CODE           ?PR?SI2C_WRITENBYTE?STC32G_SOFT_I2C
   *DEL*:           00000BH   BYTE   INSEG    CODE           ?PR?I2C_DELAY?STC32G_SOFT_I2C
   *DEL*:           000024H   BYTE   INSEG    CODE           ?PR?I2C_READABYTE?STC32G_SOFT_I2C
   *DEL*:           00002BH   BYTE   INSEG    CODE           ?PR?I2C_WRITEABYTE?STC32G_SOFT_I2C
   *DEL*:           000013H   BYTE   INSEG    CODE           ?PR?I2C_CHECK_ACK?STC32G_SOFT_I2C
   *DEL*:           000014H   BYTE   INSEG    CODE           ?PR?I2C_START?STC32G_SOFT_I2C
   *DEL*:           00000FH   BYTE   INSEG    CODE           ?PR?S_NOACK?STC32G_SOFT_I2C
   *DEL*:           00000FH   BYTE   INSEG    CODE           ?PR?I2C_STOP?STC32G_SOFT_I2C
   *DEL*:           000067H   BYTE   INSEG    CODE           ?PR?SI2C_READNBYTE?STC32G_SOFT_I2C
   *DEL*:           000003H   BYTE   UNIT     EDATA          ?ED?SI2C_WRITENBYTE?STC32G_SOFT_I2C
   *DEL*:           000003H   BYTE   UNIT     EDATA          ?ED?SI2C_READNBYTE?STC32G_SOFT_I2C



OVERLAY MAP OF MODULE:   .\list\PWM (main)


FUNCTION/MODULE                           BIT_GROUP   EDATA_GROUP
--> CALLED FUNCTION/MODULE               START  STOP  START  STOP
=================================================================
Timer1_ISR_Handler/main                  ----- -----  ----- -----

*** NEW ROOT ***************************

Timer2_ISR_Handler/main                  ----- -----  ----- -----
  +--> PWM_Run/main
  +--> Motor_RunPercent/main
  +--> UpdateTTimeAction/main
  +--> LineControlStep/main

PWM_Run/main                             ----- -----  ----- -----
  +--> PWM_Left/main
  +--> PWM_Right/main
  +--> UpdatePwm/STC32G_PWM

PWM_Left/main                            ----- -----  ----- -----

PWM_Right/main                           ----- -----  ----- -----

UpdatePwm/STC32G_PWM                     ----- -----  ----- -----

Motor_RunPercent/main                    ----- -----  ----- -----
  +--> LimitPercent/main
  +--> PWM_Run/main

LimitPercent/main                        ----- -----  ----- -----

UpdateTTimeAction/main                   ----- -----  ----- -----
  +--> Motor_RunPercent/main

L251 LINKER/LOCATER V4.66.93.0                                                        06/14/2026  09:42:26  PAGE 5


LineControlStep/main                     ----- -----  0008H 0009H
  +--> ReadLineMask/main
  +--> UpdateTState/main
  +--> HandleSpecialLineState/main
  +--> LineLostSearch/main
  +--> ComputeLineError/main
  +--> ApplyLinePid/main

ReadLineMask/main                        ----- -----  ----- -----

UpdateTState/main                        21H.5 21H.5  ----- -----
  +--> IsTStateMask/main

IsTStateMask/main                        ----- -----  ----- -----

HandleSpecialLineState/main              ----- -----  ----- -----
  +--> Motor_RunPercent/main

LineLostSearch/main                      ----- -----  ----- -----
  +--> Motor_RunPercent/main

ComputeLineError/main                    ----- -----  ----- -----

ApplyLinePid/main                        ----- -----  ----- -----
  +--> LinePidUpdate/main
  +--> Motor_RunPercent/main

LinePidUpdate/main                       ----- -----  ----- -----
  +--> ?C?SLDIV/?C?SLDIV

?C?SLDIV/?C?SLDIV                        ----- -----  ----- -----
  +--> ?C?ULIDIV/?C?ULDIV

?C?ULIDIV/?C?ULDIV                       ----- -----  ----- -----

*** NEW ROOT ***************************

?C_C51STARTUP?1                          ----- -----  ----- -----

*** NEW ROOT ***************************

PWMA_ISR_Handler/STC32G_PWM_Isr          ----- -----  ----- -----

*** NEW ROOT ***************************

PWMB_ISR_Handler/STC32G_PWM_Isr          ----- -----  ----- -----

*** NEW ROOT ***************************

Timer0_ISR_Handler/STC32G_Timer_Isr      ----- -----  ----- -----

*** NEW ROOT ***************************

Timer3_ISR_Handler/STC32G_Timer_Isr      ----- -----  ----- -----

*** NEW ROOT ***************************

Timer4_ISR_Handler/STC32G_Timer_Isr      ----- -----  ----- -----

*** NEW ROOT ***************************

?C_C51STARTUP                            ----- -----  ----- -----

*** NEW ROOT ***************************

L251 LINKER/LOCATER V4.66.93.0                                                        06/14/2026  09:42:26  PAGE 6


?C_C51STARTUP?3                          ----- -----  ----- -----
  +--> main/main

main/main                                ----- -----  ----- -----
  +--> Timer_config/main
  +--> Timer1_config/main
  +--> Timer2_config/main
  +--> PWM_config/main
  +--> oled_Init/oled

Timer_config/main                        ----- -----  000AH 0010H
  +--> Timer_Inilize/STC32G_Timer
  +--> NVIC_Timer0_Init/STC32G_NVIC

Timer_Inilize/STC32G_Timer               ----- -----  ----- -----

NVIC_Timer0_Init/STC32G_NVIC             ----- -----  ----- -----

Timer1_config/main                       ----- -----  000AH 0010H
  +--> Timer_Inilize/STC32G_Timer
  +--> NVIC_Timer1_Init/STC32G_NVIC

NVIC_Timer1_Init/STC32G_NVIC             ----- -----  ----- -----

Timer2_config/main                       ----- -----  000AH 0010H
  +--> Timer_Inilize/STC32G_Timer
  +--> NVIC_Timer2_Init/STC32G_NVIC

NVIC_Timer2_Init/STC32G_NVIC             ----- -----  ----- -----

PWM_config/main                          ----- -----  000AH 0012H
  +--> PWM_Configuration/STC32G_PWM
  +--> NVIC_PWM_Init/STC32G_NVIC

PWM_Configuration/STC32G_PWM             ----- -----  ----- -----

NVIC_PWM_Init/STC32G_NVIC                ----- -----  ----- -----

oled_Init/oled                           ----- -----  ----- -----
  +--> iic_Init/iic
  +--> delay_ms/STC32G_Delay
  +--> oled_IIC_SendCommand/oled
  +--> oled_clear/oled

iic_Init/iic                             ----- -----  ----- -----

delay_ms/STC32G_Delay                    ----- -----  ----- -----

oled_IIC_SendCommand/oled                ----- -----  ----- -----
  +--> iic_Start/iic
  +--> iic_SendData/iic
  +--> iic_Wait_Ack/iic
  +--> iic_Stop/iic

iic_Start/iic                            ----- -----  ----- -----

iic_SendData/iic                         ----- -----  ----- -----

iic_Wait_Ack/iic                         ----- -----  ----- -----

iic_Stop/iic                             ----- -----  ----- -----

oled_clear/oled                          ----- -----  ----- -----
  +--> oled_IIC_SendCommand/oled
  +--> oled_IIC_SendData/oled
L251 LINKER/LOCATER V4.66.93.0                                                        06/14/2026  09:42:26  PAGE 7



oled_IIC_SendData/oled                   ----- -----  ----- -----
  +--> iic_Start/iic
  +--> iic_SendData/iic
  +--> iic_Wait_Ack/iic
  +--> iic_Stop/iic

*** NEW ROOT ***************************

?C_C51STARTUP?2                          ----- -----  ----- -----



PUBLIC SYMBOLS OF MODULE:  .\list\PWM (main)


      VALUE       CLASS    TYPE      PUBLIC SYMBOL NAME
      =================================================
      000000FFH   NUMBER   ---       ?C?CODESEG
      00FF1CE7H   CODE     ---       ?C?INITEDATA
      00FF2131H   HCONST   WORD      ?C?INITEDATA_END
      00FF184FH   CODE     ---       ?C?LIMUL
      00FF181DH   CODE     ---       ?C?SIDIV
      00FF1858H   CODE     NEAR LAB  ?C?SLDIV
      00FF0000H   CODE     ---       ?C?STARTUP
      00FF188EH   CODE     NEAR LAB  ?C?ULDIV
      00FF188CH   CODE     NEAR LAB  ?C?ULIDIV
      00000001H   NUMBER   ---       ?C?XDATASEG
      00FF0000H   CODE     ---       ?C_STARTUP
*SFR* 000000BCH   DATA     BYTE      ADC_CONTR
*SFR* 000000DEH   DATA     BYTE      ADCCFG
*SFR* 000000C0H.5 DATA     BIT       AIN1
*SFR* 000000A0H.7 DATA     BIT       AIN2
      00FF209EH   CODE     ---       ApplyLinePid
*SFR* 000000EFH   DATA     BYTE      AUXINTIF
*SFR* 0000008EH   DATA     BYTE      AUXR
*SFR* 00000097H   DATA     BYTE      AUXR2
*SFR* 000000A0H.5 DATA     BIT       BIN1
*SFR* 000000A0H.6 DATA     BIT       BIN2
      00FF0306H   CODE     ---       BMP1
*SFR* 000000F1H.5 DATA     BIT       CAN2IE
*SFR* 000000F1H   DATA     BYTE      CANICR
*SFR* 000000F1H.1 DATA     BIT       CANIE
*SFR* 000000EAH   DATA     BYTE      CKCON
*SFR* 000000E6H   DATA     BYTE      CMPCR1
*SFR* 000000E7H   DATA     BYTE      CMPCR2
      00FF1D62H   CODE     ---       ComputeLineError
      00000049H   EDATA    WORD      dalay_Start_Count
      00FF1FFAH   CODE     ---       delay_ms
      00000020H.1 BIT      BIT       delay_Start
*SFR* 000000A8H.7 DATA     BIT       EA
*SFR* 000000A8H.5 DATA     BIT       EADC
*SFR* 000000BAH.7 DATA     BIT       EAXFR
*SFR* 00000090H.4 DATA     BIT       ECHO
      00000024H   EDATA    WORD      end_Count
*SFR* 000000A8H.4 DATA     BIT       ES
*SFR* 000000AFH.0 DATA     BIT       ES2
*SFR* 000000AFH.3 DATA     BIT       ES3
*SFR* 000000AFH.4 DATA     BIT       ES4
*SFR* 000000AFH.1 DATA     BIT       ESPI
*SFR* 000000A8H.1 DATA     BIT       ET0
*SFR* 000000A8H.3 DATA     BIT       ET1
*SFR* 000000AFH.2 DATA     BIT       ET2
*SFR* 000000AFH.5 DATA     BIT       ET3
*SFR* 000000AFH.6 DATA     BIT       ET4
L251 LINKER/LOCATER V4.66.93.0                                                        06/14/2026  09:42:26  PAGE 8


*SFR* 000000A8H.0 DATA     BIT       EX0
*SFR* 000000A8H.2 DATA     BIT       EX1
*SFR* 0000008FH.4 DATA     BIT       EX2
*SFR* 0000008FH.5 DATA     BIT       EX3
*SFR* 0000008FH.6 DATA     BIT       EX4
*SFR* 000000D0H.5 DATA     BIT       F0
      00FF00DEH   CODE     ---       F6X8
      00FF0786H   CODE     ---       F8X16
      00000058H   EDATA    DWORD     Flag
      00000047H   EDATA    WORD      Force_Turn_Count
      00000020H.4 BIT      BIT       Force_Turn_Enable
*DEL*:00000000H   CODE     ---       GPIO_config
*DEL*:00000000H   CODE     ---       GPIO_Inilize
      00FF001EH   CODE     ---       HandleSpecialLineState
*DEL*:00000000H   CODE     ---       HSPWM_Configuration
      00FF0706H   CODE     ---       Hzk
*DEL*:00000000H   CODE     ---       I2C_Check_ACK
*DEL*:00000000H   CODE     ---       I2C_Delay
*DEL*:00000000H   CODE     ---       I2C_ReadAbyte
*DEL*:00000000H   CODE     ---       I2C_Start
*DEL*:00000000H   CODE     ---       I2C_Stop
*DEL*:00000000H   CODE     ---       I2C_WriteAbyte
*SFR* 000000C7H   DATA     BYTE      IAP_CONTR
*SFR* 000000A8H   DATA     BYTE      IE
*SFR* 000000AFH   DATA     BYTE      IE2
*DEL*:00000000H   CODE     ---       iic_Ack
      00FF2027H   CODE     ---       iic_Init
*DEL*:00000000H   CODE     ---       iic_NAck
*DEL*:00000000H   CODE     ---       iic_ReadData
      00FF1F5BH   CODE     ---       iic_SendData
      00FF1FE2H   CODE     ---       iic_Start
      00FF203CH   CODE     ---       iic_Stop
      00FF208BH   CODE     ---       iic_Wait_Ack
*SFR* 0000008FH   DATA     BYTE      INTCLKO
*SFR* 000000B8H   DATA     BYTE      IP
*SFR* 000000B5H   DATA     BYTE      IP2
*SFR* 000000B6H   DATA     BYTE      IP2H
*SFR* 000000DFH   DATA     BYTE      IP3
*SFR* 000000EEH   DATA     BYTE      IP3H
*SFR* 000000B7H   DATA     BYTE      IPH
*SFR* 0000009DH   DATA     BYTE      IRCBAND
      00FF1FB1H   CODE     ---       IsTStateMask
      00FF2051H   CODE     ---       LimitPercent
      00000052H   EDATA    INT       Line_Last_Error
      00000051H   EDATA    BYTE      Line_Last_Left
      00000046H   EDATA    BYTE      Line_Last_Right
      00000056H   EDATA    WORD      Line_Lost_Count
      00000022H   EDATA    INT       Line_Pid_Integral
      0000004BH   EDATA    INT       Line_Pid_Last_Error
      00FF1D13H   CODE     ---       LineControlStep
      00FF1E9DH   CODE     ---       LineLostSearch
      00FF1C00H   CODE     ---       LinePidUpdate
*SFR* 000000F9H   DATA     BYTE      LINICR
*SFR* 000000F9H.1 DATA     BIT       LINIE
      00FF1C6BH   CODE     ---       main
      00000021H.0 BIT      BIT       measuring
      00FF1B8CH   CODE     ---       Motor_RunPercent
*DEL*:00000000H   CODE     ---       Motor_SetForward
      0000004DH   EDATA    DWORD     n
*SFR* 000000E6H.4 DATA     BIT       NIE
*DEL*:00000000H   CODE     ---       NVIC_ADC_Init
*DEL*:00000000H   CODE     ---       NVIC_CAN_Init
*DEL*:00000000H   CODE     ---       NVIC_CMP_Init
*DEL*:00000000H   CODE     ---       NVIC_DMA_ADC_Init
*DEL*:00000000H   CODE     ---       NVIC_DMA_I2CR_Init
L251 LINKER/LOCATER V4.66.93.0                                                        06/14/2026  09:42:26  PAGE 9


*DEL*:00000000H   CODE     ---       NVIC_DMA_I2CT_Init
*DEL*:00000000H   CODE     ---       NVIC_DMA_LCM_Init
*DEL*:00000000H   CODE     ---       NVIC_DMA_M2M_Init
*DEL*:00000000H   CODE     ---       NVIC_DMA_SPI_Init
*DEL*:00000000H   CODE     ---       NVIC_DMA_UART1_Rx_Init
*DEL*:00000000H   CODE     ---       NVIC_DMA_UART1_Tx_Init
*DEL*:00000000H   CODE     ---       NVIC_DMA_UART2_Rx_Init
*DEL*:00000000H   CODE     ---       NVIC_DMA_UART2_Tx_Init
*DEL*:00000000H   CODE     ---       NVIC_DMA_UART3_Rx_Init
*DEL*:00000000H   CODE     ---       NVIC_DMA_UART3_Tx_Init
*DEL*:00000000H   CODE     ---       NVIC_DMA_UART4_Rx_Init
*DEL*:00000000H   CODE     ---       NVIC_DMA_UART4_Tx_Init
*DEL*:00000000H   CODE     ---       NVIC_I2C_Init
*DEL*:00000000H   CODE     ---       NVIC_INT0_Init
*DEL*:00000000H   CODE     ---       NVIC_INT1_Init
*DEL*:00000000H   CODE     ---       NVIC_INT2_Init
*DEL*:00000000H   CODE     ---       NVIC_INT3_Init
*DEL*:00000000H   CODE     ---       NVIC_INT4_Init
*DEL*:00000000H   CODE     ---       NVIC_LCM_Init
*DEL*:00000000H   CODE     ---       NVIC_LIN_Init
      00FF18DFH   CODE     ---       NVIC_PWM_Init
*DEL*:00000000H   CODE     ---       NVIC_RTC_Init
*DEL*:00000000H   CODE     ---       NVIC_SPI_Init
      00FF1DACH   CODE     ---       NVIC_Timer0_Init
      00FF1DF4H   CODE     ---       NVIC_Timer1_Init
      00FF1F97H   CODE     ---       NVIC_Timer2_Init
*DEL*:00000000H   CODE     ---       NVIC_Timer3_Init
*DEL*:00000000H   CODE     ---       NVIC_Timer4_Init
*DEL*:00000000H   CODE     ---       NVIC_UART1_Init
*DEL*:00000000H   CODE     ---       NVIC_UART2_Init
*DEL*:00000000H   CODE     ---       NVIC_UART3_Init
*DEL*:00000000H   CODE     ---       NVIC_UART4_Init
*DEL*:00000000H   CODE     ---       oled_Allfill
      00FF00A6H   CODE     ---       oled_clear
*DEL*:00000000H   CODE     ---       oled_Display_OFF
*DEL*:00000000H   CODE     ---       oled_Display_ON
      00FF1F37H   CODE     ---       oled_IIC_SendCommand
      00FF1EEEH   CODE     ---       oled_IIC_SendData
      00FF1975H   CODE     ---       oled_Init
*DEL*:00000000H   CODE     ---       oled_Pow
*DEL*:00000000H   CODE     ---       oled_SetPos
*DEL*:00000000H   CODE     ---       oled_ShowBMP
*DEL*:00000000H   CODE     ---       oled_ShowChar
*DEL*:00000000H   CODE     ---       oled_ShowCN
*DEL*:00000000H   CODE     ---       oled_ShowNum
*DEL*:00000000H   CODE     ---       oled_ShowStr
*SFR* 00000080H   DATA     BYTE      P0
*SFR* 00000094H   DATA     BYTE      P0M0
*SFR* 00000093H   DATA     BYTE      P0M1
*SFR* 00000090H   DATA     BYTE      P1
*SFR* 00000092H   DATA     BYTE      P1M0
*SFR* 00000091H   DATA     BYTE      P1M1
*SFR* 000000A0H   DATA     BYTE      P2
*SFR* 00000096H   DATA     BYTE      P2M0
*SFR* 00000095H   DATA     BYTE      P2M1
*SFR* 000000B0H   DATA     BYTE      P3
*SFR* 000000B0H.3 DATA     BIT       P33
*SFR* 000000B2H   DATA     BYTE      P3M0
*SFR* 000000B1H   DATA     BYTE      P3M1
*SFR* 000000C0H   DATA     BYTE      P4
*SFR* 000000B4H   DATA     BYTE      P4M0
*SFR* 000000B3H   DATA     BYTE      P4M1
*SFR* 000000C8H   DATA     BYTE      P5
*SFR* 000000C8H.4 DATA     BIT       P54
*SFR* 000000CAH   DATA     BYTE      P5M0
L251 LINKER/LOCATER V4.66.93.0                                                        06/14/2026  09:42:26  PAGE 10


*SFR* 000000C9H   DATA     BYTE      P5M1
*SFR* 000000E8H   DATA     BYTE      P6
*SFR* 000000E8H.3 DATA     BIT       P63
*SFR* 000000E8H.4 DATA     BIT       P64
*SFR* 000000CCH   DATA     BYTE      P6M0
*SFR* 000000CBH   DATA     BYTE      P6M1
*SFR* 000000F8H   DATA     BYTE      P7
*SFR* 000000E2H   DATA     BYTE      P7M0
*SFR* 000000E1H   DATA     BYTE      P7M1
*SFR* 000000A2H   DATA     BYTE      P_SW1
*SFR* 000000BAH   DATA     BYTE      P_SW2
*SFR* 000000BBH   DATA     BYTE      P_SW3
*SFR* 000000B8H.5 DATA     BIT       PADC
*SFR* 000000B7H.5 DATA     BIT       PADCH
*SFR* 000000F1H.7 DATA     BIT       PCAN2H
*SFR* 000000F1H.4 DATA     BIT       PCAN2L
*SFR* 000000F1H.3 DATA     BIT       PCANH
*SFR* 000000F1H.0 DATA     BIT       PCANL
*SFR* 000000B5H.5 DATA     BIT       PCMP
*SFR* 000000B6H.5 DATA     BIT       PCMPH
*SFR* 00000087H   DATA     BYTE      PCON
*SFR* 000000E6H.5 DATA     BIT       PIE
*SFR* 000000F9H.3 DATA     BIT       PLINH
*SFR* 000000F9H.0 DATA     BIT       PLINL
*SFR* 000000B5H.2 DATA     BIT       PPWMA
*SFR* 000000B6H.2 DATA     BIT       PPWMAH
*SFR* 000000B5H.3 DATA     BIT       PPWMB
*SFR* 000000B6H.3 DATA     BIT       PPWMBH
*SFR* 000000DFH.2 DATA     BIT       PRTC
*SFR* 000000EEH.2 DATA     BIT       PRTCH
*SFR* 000000B8H.4 DATA     BIT       PS
*SFR* 000000B5H.0 DATA     BIT       PS2
*SFR* 000000B6H.0 DATA     BIT       PS2H
*SFR* 000000DFH.0 DATA     BIT       PS3
*SFR* 000000EEH.0 DATA     BIT       PS3H
*SFR* 000000DFH.1 DATA     BIT       PS4
*SFR* 000000EEH.1 DATA     BIT       PS4H
*SFR* 000000B7H.4 DATA     BIT       PSH
*SFR* 000000B5H.1 DATA     BIT       PSPI
*SFR* 000000B6H.1 DATA     BIT       PSPIH
*SFR* 000000D0H   DATA     BYTE      PSW
*SFR* 000000B8H.1 DATA     BIT       PT0
*SFR* 000000B7H.1 DATA     BIT       PT0H
*SFR* 000000B8H.3 DATA     BIT       PT1
*SFR* 000000B7H.3 DATA     BIT       PT1H
      00000020H.2 BIT      BIT       PWM5_Flag
      00000020H.3 BIT      BIT       PWM6_Flag
      00FF1B11H   CODE     ---       PWM_config
      00FF0D76H   CODE     ---       PWM_Configuration
      00FF2078H   CODE     ---       PWM_Left
      0000002EH   EDATA    WORD      PWM_Period
      00FF2065H   CODE     ---       PWM_Right
      00FF1FCAH   CODE     ---       PWM_Run
      00FF1A07H   CODE     ---       PWMA_ISR_Handler
      00000030H   EDATA    ---       PWMB_Duty
      00FF1A8CH   CODE     ---       PWMB_ISR_Handler
*SFR* 000000B8H.0 DATA     BIT       PX0
*SFR* 000000B7H.0 DATA     BIT       PX0H
*SFR* 000000B8H.2 DATA     BIT       PX1
*SFR* 000000B7H.2 DATA     BIT       PX1H
      00FF1F7CH   CODE     ---       ReadLineMask
*DEL*:00000000H   CODE     ---       ReadPWMA
*DEL*:00000000H   CODE     ---       ReadPWMB
*SFR* 000000FFH   DATA     BYTE      RSTCFG
*SFR* 0000009AH   DATA     BYTE      S2CON
L251 LINKER/LOCATER V4.66.93.0                                                        06/14/2026  09:42:26  PAGE 11


*SFR* 000000ACH   DATA     BYTE      S3CON
*SFR* 000000FDH   DATA     BYTE      S4CON
*DEL*:00000000H   CODE     ---       S_ACK
*DEL*:00000000H   CODE     ---       S_NoACK
*SFR* 00000080H.0 DATA     BIT       SCL
*SFR* 00000098H   DATA     BYTE      SCON
*SFR* 00000080H.1 DATA     BIT       SDA
*DEL*:00000000H   CODE     ---       SI2C_ReadNbyte
*DEL*:00000000H   CODE     ---       SI2C_WriteNbyte
*SFR* 000000CEH   DATA     BYTE      SPCTL
*SFR* 000000CDH   DATA     BYTE      SPSTAT
      00000021H.4 BIT      BIT       T0_1ms
*SFR* 00000089H.2 DATA     BIT       T0_CT
*SFR* 0000008FH.0 DATA     BIT       T0CLKO
*SFR* 0000008EH.7 DATA     BIT       T0x12
*SFR* 00000089H.6 DATA     BIT       T1_CT
*SFR* 0000008FH.1 DATA     BIT       T1CLKO
*SFR* 0000008EH.6 DATA     BIT       T1x12
*SFR* 0000008EH.3 DATA     BIT       T2_CT
*SFR* 0000008FH.2 DATA     BIT       T2CLKO
*SFR* 000000D6H   DATA     BYTE      T2H
*SFR* 000000D7H   DATA     BYTE      T2L
*SFR* 0000008EH.4 DATA     BIT       T2R
*SFR* 0000008EH.2 DATA     BIT       T2x12
*SFR* 000000DDH.2 DATA     BIT       T3_CT
*SFR* 000000DDH.0 DATA     BIT       T3CLKO
*SFR* 000000D4H   DATA     BYTE      T3H
*SFR* 000000D5H   DATA     BYTE      T3L
*SFR* 000000DDH.3 DATA     BIT       T3R
*SFR* 000000DDH.1 DATA     BIT       T3x12
*SFR* 000000DDH.6 DATA     BIT       T4_CT
*SFR* 000000DDH.4 DATA     BIT       T4CLKO
*SFR* 000000D2H   DATA     BYTE      T4H
*SFR* 000000D3H   DATA     BYTE      T4L
*SFR* 000000DDH.7 DATA     BIT       T4R
*SFR* 000000DDH   DATA     BYTE      T4T3M
*SFR* 000000DDH.5 DATA     BIT       T4x12
      00000028H   EDATA    WORD      T_Left_Count
      00000021H.2 BIT      BIT       T_Left_Enable
      00000020H.0 BIT      BIT       T_State_45
      00000026H   EDATA    WORD      T_State_Count
      00000020H.6 BIT      BIT       T_State_Last
      00000020H.5 BIT      BIT       T_Time_Done
      00000021H.3 BIT      BIT       T_Time_Enable
      0000002AH   EDATA    DWORD     T_Time_Tick
      00000020H.7 BIT      BIT       T_you_Enable
*SFR* 00000088H   DATA     BYTE      TCON
*DEL*:00000000H   CODE     ---       test01
*SFR* 0000008CH   DATA     BYTE      TH0
*SFR* 0000008DH   DATA     BYTE      TH1
      00000054H   EDATA    WORD      time_us
      00FF0015H   CODE     ---       Timer0_ISR_Handler
      00FF1E6DH   CODE     ---       Timer1_config
      00FF2011H   CODE     ---       Timer1_ISR_Handler
      00FF0066H   CODE     ---       Timer2_config
      00FF1724H   CODE     ---       Timer2_ISR_Handler
      00FF0003H   CODE     ---       Timer3_ISR_Handler
      00FF000EH   CODE     ---       Timer4_ISR_Handler
      00FF1E3CH   CODE     ---       Timer_config
      00FF1390H   CODE     ---       Timer_Inilize
*SFR* 0000008AH   DATA     BYTE      TL0
*SFR* 0000008BH   DATA     BYTE      TL1
*SFR* 00000089H   DATA     BYTE      TMOD
      00000042H   EDATA    WORD      Toggle_Count
      00000021H.1 BIT      BIT       Toggle_Start
L251 LINKER/LOCATER V4.66.93.0                                                        06/14/2026  09:42:26  PAGE 12


*SFR* 00000088H.4 DATA     BIT       TR0
*SFR* 00000088H.6 DATA     BIT       TR1
*SFR* 00000080H.6 DATA     BIT       TRIG
      00000044H   EDATA    WORD      Turn_you_Count
      00000040H   EDATA    WORD      U_Count
*DEL*:00000000H   CODE     ---       Ultrasonic_GetDistance
*DEL*:00000000H   CODE     ---       UpdateHSPwm
      00FF15A9H   CODE     ---       UpdatePwm
      00FF1EC6H   CODE     ---       UpdateTState
      00FF1F13H   CODE     ---       UpdateTTimeAction
*SFR* 000000F4H   DATA     BYTE      USBCON
*SFR* 000000C1H   DATA     BYTE      WDT_CONTR
*DEL*:00000000H   CODE     ---       WritePWMA
*DEL*:00000000H   CODE     ---       WritePWMB
*SFR* 000000E9H   DATA     BYTE      WTST
*SFR* 00000080H.1 DATA     BIT       you1
*SFR* 00000080H.0 DATA     BIT       you2
*SFR* 00000080H.2 DATA     BIT       zhong
*SFR* 00000080H.4 DATA     BIT       zuo1
*SFR* 00000080H.3 DATA     BIT       zuo2



SYMBOL TABLE OF MODULE:  .\list\PWM (main)

      VALUE       REP       CLASS    TYPE      SYMBOL NAME
      ====================================================
      ---         MODULE    ---      ---       main
      00FF1B8CH   PUBLIC    CODE     ---       Motor_RunPercent
      00FF1E9DH   PUBLIC    CODE     ---       LineLostSearch
      00FF1FCAH   PUBLIC    CODE     ---       PWM_Run
      00FF1E6DH   PUBLIC    CODE     ---       Timer1_config
      00FF1D13H   PUBLIC    CODE     ---       LineControlStep
      00FF0066H   PUBLIC    CODE     ---       Timer2_config
      00FF1C00H   PUBLIC    CODE     ---       LinePidUpdate
      00FF1F7CH   PUBLIC    CODE     ---       ReadLineMask
      00FF1FB1H   PUBLIC    CODE     ---       IsTStateMask
      00FF001EH   PUBLIC    CODE     ---       HandleSpecialLineState
      00FF1C6BH   PUBLIC    CODE     ---       main
      00FF2011H   PUBLIC    CODE     ---       Timer1_ISR_Handler
      00FF1724H   PUBLIC    CODE     ---       Timer2_ISR_Handler
      00FF1F13H   PUBLIC    CODE     ---       UpdateTTimeAction
      00FF209EH   PUBLIC    CODE     ---       ApplyLinePid
      00FF1EC6H   PUBLIC    CODE     ---       UpdateTState
      00FF1B11H   PUBLIC    CODE     ---       PWM_config
      00FF2065H   PUBLIC    CODE     ---       PWM_Right
      00FF2051H   PUBLIC    CODE     ---       LimitPercent
      00FF1E3CH   PUBLIC    CODE     ---       Timer_config
      00FF2078H   PUBLIC    CODE     ---       PWM_Left
      00FF1D62H   PUBLIC    CODE     ---       ComputeLineError
      00000020H.0 PUBLIC    BIT      BIT       T_State_45
      00000020H.1 PUBLIC    BIT      BIT       delay_Start
      00000020H.2 PUBLIC    BIT      BIT       PWM5_Flag
      00000020H.3 PUBLIC    BIT      BIT       PWM6_Flag
      00000020H.4 PUBLIC    BIT      BIT       Force_Turn_Enable
      00000020H.5 PUBLIC    BIT      BIT       T_Time_Done
      00000020H.6 PUBLIC    BIT      BIT       T_State_Last
      00000020H.7 PUBLIC    BIT      BIT       T_you_Enable
      00000021H.0 PUBLIC    BIT      BIT       measuring
      00000021H.1 PUBLIC    BIT      BIT       Toggle_Start
      00000021H.2 PUBLIC    BIT      BIT       T_Left_Enable
      00000021H.3 PUBLIC    BIT      BIT       T_Time_Enable
      00000022H   PUBLIC    EDATA    INT       Line_Pid_Integral
      00000024H   PUBLIC    EDATA    WORD      end_Count
      00000026H   PUBLIC    EDATA    WORD      T_State_Count
L251 LINKER/LOCATER V4.66.93.0                                                        06/14/2026  09:42:26  PAGE 13


      00000028H   PUBLIC    EDATA    WORD      T_Left_Count
      0000002AH   PUBLIC    EDATA    DWORD     T_Time_Tick
      0000002EH   PUBLIC    EDATA    WORD      PWM_Period
      00000030H   PUBLIC    EDATA    ---       PWMB_Duty
      00000040H   PUBLIC    EDATA    WORD      U_Count
      00000042H   PUBLIC    EDATA    WORD      Toggle_Count
      00000044H   PUBLIC    EDATA    WORD      Turn_you_Count
      00000046H   PUBLIC    EDATA    BYTE      Line_Last_Right
      00000047H   PUBLIC    EDATA    WORD      Force_Turn_Count
      00000049H   PUBLIC    EDATA    WORD      dalay_Start_Count
      0000004BH   PUBLIC    EDATA    INT       Line_Pid_Last_Error
      0000004DH   PUBLIC    EDATA    DWORD     n
      00000051H   PUBLIC    EDATA    BYTE      Line_Last_Left
      00000052H   PUBLIC    EDATA    INT       Line_Last_Error
      00000054H   PUBLIC    EDATA    WORD      time_us
      00000056H   PUBLIC    EDATA    WORD      Line_Lost_Count
      00000058H   PUBLIC    EDATA    DWORD     Flag
      00000094H   SFRSYM    DATA     BYTE      P0M0
      000000D0H   SFRSYM    DATA     BYTE      PSW
      000000BAH.7 SFRSYM    DATA     BIT       EAXFR
      0000009DH   SFRSYM    DATA     BYTE      IRCBAND
      00000097H   SFRSYM    DATA     BYTE      AUXR2
      000000EAH   SFRSYM    DATA     BYTE      CKCON
      000000EFH   SFRSYM    DATA     BYTE      AUXINTIF
      000000FDH   SFRSYM    DATA     BYTE      S4CON
      000000ACH   SFRSYM    DATA     BYTE      S3CON
      0000009AH   SFRSYM    DATA     BYTE      S2CON
      000000B7H   SFRSYM    DATA     BYTE      IPH
      000000CDH   SFRSYM    DATA     BYTE      SPSTAT
      000000DDH   SFRSYM    DATA     BYTE      T4T3M
      000000C1H   SFRSYM    DATA     BYTE      WDT_CONTR
      000000E9H   SFRSYM    DATA     BYTE      WTST
      000000DFH   SFRSYM    DATA     BYTE      IP3
      000000F4H   SFRSYM    DATA     BYTE      USBCON
      000000B5H   SFRSYM    DATA     BYTE      IP2
      000000FFH   SFRSYM    DATA     BYTE      RSTCFG
      000000C7H   SFRSYM    DATA     BYTE      IAP_CONTR
      000000F9H   SFRSYM    DATA     BYTE      LINICR
      0000008EH   SFRSYM    DATA     BYTE      AUXR
      000000AFH   SFRSYM    DATA     BYTE      IE2
      00000080H.6 SFRSYM    DATA     BIT       TRIG
      00000088H   SFRSYM    DATA     BYTE      TCON
      00000089H   SFRSYM    DATA     BYTE      TMOD
      00000098H   SFRSYM    DATA     BYTE      SCON
      000000F1H   SFRSYM    DATA     BYTE      CANICR
      00000087H   SFRSYM    DATA     BYTE      PCON
      000000BCH   SFRSYM    DATA     BYTE      ADC_CONTR
      000000E7H   SFRSYM    DATA     BYTE      CMPCR2
      00000080H.2 SFRSYM    DATA     BIT       zhong
      000000E6H   SFRSYM    DATA     BYTE      CMPCR1
      00000090H.4 SFRSYM    DATA     BIT       ECHO
      000000DEH   SFRSYM    DATA     BYTE      ADCCFG
      000000B8H   SFRSYM    DATA     BYTE      IP
      0000008FH   SFRSYM    DATA     BYTE      INTCLKO
      000000EEH   SFRSYM    DATA     BYTE      IP3H
      000000B6H   SFRSYM    DATA     BYTE      IP2H
      00000080H.3 SFRSYM    DATA     BIT       zuo2
      00000080H.4 SFRSYM    DATA     BIT       zuo1
      00000080H.0 SFRSYM    DATA     BIT       you2
      00000080H.1 SFRSYM    DATA     BIT       you1
      000000A8H   SFRSYM    DATA     BYTE      IE
      000000BBH   SFRSYM    DATA     BYTE      P_SW3
      000000BAH   SFRSYM    DATA     BYTE      P_SW2
      000000A2H   SFRSYM    DATA     BYTE      P_SW1
      000000A0H.6 SFRSYM    DATA     BIT       BIN2
L251 LINKER/LOCATER V4.66.93.0                                                        06/14/2026  09:42:26  PAGE 14


      000000A0H.7 SFRSYM    DATA     BIT       AIN2
      000000A0H.5 SFRSYM    DATA     BIT       BIN1
      000000C0H.5 SFRSYM    DATA     BIT       AIN1
      000000CEH   SFRSYM    DATA     BYTE      SPCTL
      000000F8H   SFRSYM    DATA     BYTE      P7
      000000A8H.7 SFRSYM    DATA     BIT       EA
      000000E8H   SFRSYM    DATA     BYTE      P6
      000000C8H   SFRSYM    DATA     BYTE      P5
      000000C0H   SFRSYM    DATA     BYTE      P4
      000000B0H   SFRSYM    DATA     BYTE      P3
      000000B3H   SFRSYM    DATA     BYTE      P4M1
      000000A0H   SFRSYM    DATA     BYTE      P2
      000000B4H   SFRSYM    DATA     BYTE      P4M0
      00000090H   SFRSYM    DATA     BYTE      P1
      00000095H   SFRSYM    DATA     BYTE      P2M1
      00000080H   SFRSYM    DATA     BYTE      P0
      00000091H   SFRSYM    DATA     BYTE      P1M1
      00000096H   SFRSYM    DATA     BYTE      P2M0
      00000092H   SFRSYM    DATA     BYTE      P1M0
      00000093H   SFRSYM    DATA     BYTE      P0M1

      00FF1E3CH   BLOCK     CODE     ---       LVL=0
      0000000AH   SYMBOL    EDATA    ---       TIM_InitStructure
      00FF1E3CH   LINE      CODE     ---       #158
      00FF1E3CH   LINE      CODE     ---       #159
      00FF1E3CH   LINE      CODE     ---       #161
      00FF1E41H   LINE      CODE     ---       #162
      00FF1E47H   LINE      CODE     ---       #163
      00FF1E4CH   LINE      CODE     ---       #164
      00FF1E54H   LINE      CODE     ---       #165
      00FF1E58H   LINE      CODE     ---       #166
      00FF1E5EH   LINE      CODE     ---       #167
      00FF1E66H   LINE      CODE     ---       #168
      ---         BLOCKEND  ---      ---       LVL=0

      00FF1E6DH   BLOCK     CODE     ---       LVL=0
      0000000AH   SYMBOL    EDATA    ---       TIM_InitStructure
      00FF1E6DH   LINE      CODE     ---       #176
      00FF1E6DH   LINE      CODE     ---       #177
      00FF1E6DH   LINE      CODE     ---       #180
      00FF1E72H   LINE      CODE     ---       #181
      00FF1E78H   LINE      CODE     ---       #182
      00FF1E7DH   LINE      CODE     ---       #183
      00FF1E85H   LINE      CODE     ---       #184
      00FF1E89H   LINE      CODE     ---       #185
      00FF1E8FH   LINE      CODE     ---       #187
      00FF1E96H   LINE      CODE     ---       #188
      ---         BLOCKEND  ---      ---       LVL=0

      00FF0066H   BLOCK     CODE     ---       LVL=0
      0000000AH   SYMBOL    EDATA    ---       TIM_InitStructure
      00FF0066H   LINE      CODE     ---       #196
      00FF0066H   LINE      CODE     ---       #197
      00FF0066H   LINE      CODE     ---       #200
      00FF006BH   LINE      CODE     ---       #201
      00FF0071H   LINE      CODE     ---       #202
      00FF0076H   LINE      CODE     ---       #203
      00FF007EH   LINE      CODE     ---       #204
      00FF0082H   LINE      CODE     ---       #205
      00FF0088H   LINE      CODE     ---       #207
      00FF0091H   LINE      CODE     ---       #208
      ---         BLOCKEND  ---      ---       LVL=0

      00FF2011H   BLOCK     CODE     ---       LVL=0
      00FF2011H   LINE      CODE     ---       #217
L251 LINKER/LOCATER V4.66.93.0                                                        06/14/2026  09:42:26  PAGE 15


      00FF2015H   LINE      CODE     ---       #219
      00FF2022H   LINE      CODE     ---       #220
      ---         BLOCKEND  ---      ---       LVL=0
      WR6         REGSYM    ---      WORD      Distance_mm

      00FF1B11H   BLOCK     CODE     ---       LVL=0
      0000000AH   SYMBOL    EDATA    ---       PWMx_InitStructure
      00FF1B11H   LINE      CODE     ---       #263
      00FF1B11H   LINE      CODE     ---       #264
      00FF1B11H   LINE      CODE     ---       #271
      00FF1B17H   LINE      CODE     ---       #272
      00FF1B1FH   LINE      CODE     ---       #273
      00FF1B25H   LINE      CODE     ---       #274
      00FF1B2EH   LINE      CODE     ---       #276
      00FF1B34H   LINE      CODE     ---       #277
      00FF1B3CH   LINE      CODE     ---       #278
      00FF1B42H   LINE      CODE     ---       #279
      00FF1B4BH   LINE      CODE     ---       #282
      00FF1B53H   LINE      CODE     ---       #283
      00FF1B58H   LINE      CODE     ---       #284
      00FF1B5EH   LINE      CODE     ---       #285
      00FF1B62H   LINE      CODE     ---       #286
      00FF1B6BH   LINE      CODE     ---       #289
      00FF1B7BH   LINE      CODE     ---       #290
      00FF1B83H   LINE      CODE     ---       #291
      ---         BLOCKEND  ---      ---       LVL=0

      00FF2078H   BLOCK     CODE     ---       LVL=0
      WR2         REGSYM    ---      INT       pwm
      00FF2078H   LINE      CODE     ---       #299
      00FF207AH   LINE      CODE     ---       #302
      00FF208AH   LINE      CODE     ---       #304
      ---         BLOCKEND  ---      ---       LVL=0

      00FF2065H   BLOCK     CODE     ---       LVL=0
      WR2         REGSYM    ---      INT       pwm
      00FF2065H   LINE      CODE     ---       #311
      00FF2067H   LINE      CODE     ---       #314
      00FF2077H   LINE      CODE     ---       #316
      ---         BLOCKEND  ---      ---       LVL=0

      00FF1FCAH   BLOCK     CODE     ---       LVL=0
      WR6         REGSYM    ---      INT       pwm1
      WR14        REGSYM    ---      INT       pwm2
      00FF1FCAH   LINE      CODE     ---       #324
      00FF1FCEH   LINE      CODE     ---       #326
      00FF1FD1H   LINE      CODE     ---       #327
      00FF1FD6H   LINE      CODE     ---       #328
      00FF1FDFH   LINE      CODE     ---       #329
      ---         BLOCKEND  ---      ---       LVL=0

      00FF2051H   BLOCK     CODE     ---       LVL=0
      WR6         REGSYM    ---      INT       speed
      00FF2051H   LINE      CODE     ---       #366
      00FF2051H   LINE      CODE     ---       #368
      00FF2057H   LINE      CODE     ---       #370
      00FF2059H   LINE      CODE     ---       #371
      00FF2059H   LINE      CODE     ---       #372
      00FF205FH   LINE      CODE     ---       #374
      00FF2062H   LINE      CODE     ---       #375
      00FF2062H   LINE      CODE     ---       #376
      00FF2064H   LINE      CODE     ---       #377
      ---         BLOCKEND  ---      ---       LVL=0

      00FF1B8CH   BLOCK     CODE     ---       LVL=0
L251 LINKER/LOCATER V4.66.93.0                                                        06/14/2026  09:42:26  PAGE 16


      WR4         REGSYM    ---      INT       left
      WR14        REGSYM    ---      INT       right
      00FF1B8CH   LINE      CODE     ---       #384
      00FF1B92H   LINE      CODE     ---       #386
      00FF1B98H   LINE      CODE     ---       #388
      00FF1B9AH   LINE      CODE     ---       #389
      00FF1B9CH   LINE      CODE     ---       #390
      00FF1B9EH   LINE      CODE     ---       #391
      00FF1BA0H   LINE      CODE     ---       #392
      00FF1BA0H   LINE      CODE     ---       #393
      00FF1BA0H   LINE      CODE     ---       #394
      00FF1BA2H   LINE      CODE     ---       #395
      00FF1BA8H   LINE      CODE     ---       #397
      00FF1BAAH   LINE      CODE     ---       #398
      00FF1BACH   LINE      CODE     ---       #399
      00FF1BAEH   LINE      CODE     ---       #400
      00FF1BB0H   LINE      CODE     ---       #401
      00FF1BB2H   LINE      CODE     ---       #402
      00FF1BBAH   LINE      CODE     ---       #403
      00FF1BBCH   LINE      CODE     ---       #406
      00FF1BBEH   LINE      CODE     ---       #407
      00FF1BC0H   LINE      CODE     ---       #408
      00FF1BC2H   LINE      CODE     ---       #409
      00FF1BC4H   LINE      CODE     ---       #410
      00FF1BC6H   LINE      CODE     ---       #411
      00FF1BC6H   LINE      CODE     ---       #413
      00FF1BDCH   LINE      CODE     ---       #414
      00FF1BF2H   LINE      CODE     ---       #415
      00FF1BFDH   LINE      CODE     ---       #416
      ---         BLOCKEND  ---      ---       LVL=0

      00FF1F7CH   BLOCK     CODE     ---       LVL=0
      R11         REGSYM    ---      BYTE      mask
      00FF1F7CH   LINE      CODE     ---       #423
      00FF1F7CH   LINE      CODE     ---       #424
      00FF1F7CH   LINE      CODE     ---       #425
      00FF1F7DH   LINE      CODE     ---       #427
      00FF1F82H   LINE      CODE     ---       #428
      00FF1F87H   LINE      CODE     ---       #429
      00FF1F8CH   LINE      CODE     ---       #430
      00FF1F91H   LINE      CODE     ---       #431
      00FF1F96H   LINE      CODE     ---       #433
      00FF1F96H   LINE      CODE     ---       #434
      ---         BLOCKEND  ---      ---       LVL=0

      00FF1D62H   BLOCK     CODE     ---       LVL=0
      R10         REGSYM    ---      BYTE      mask
      REG=7       REGSYM    ---      ---       error
      00FF1D66H   BLOCK     CODE     NEAR LAB  LVL=1
      WR6         REGSYM    ---      INT       sum
      R5          REGSYM    ---      BYTE      count
      ---         BLOCKEND  ---      ---       LVL=1
      00FF1D62H   LINE      CODE     ---       #441
      00FF1D66H   LINE      CODE     ---       #442
      00FF1D66H   LINE      CODE     ---       #443
      00FF1D68H   LINE      CODE     ---       #444
      00FF1D6AH   LINE      CODE     ---       #446
      00FF1D6DH   LINE      CODE     ---       #448
      00FF1D71H   LINE      CODE     ---       #449
      00FF1D74H   LINE      CODE     ---       #450
      00FF1D74H   LINE      CODE     ---       #451
      00FF1D79H   LINE      CODE     ---       #453
      00FF1D7DH   LINE      CODE     ---       #454
      00FF1D7FH   LINE      CODE     ---       #455
      00FF1D7FH   LINE      CODE     ---       #456
L251 LINKER/LOCATER V4.66.93.0                                                        06/14/2026  09:42:26  PAGE 17


      00FF1D84H   LINE      CODE     ---       #458
      00FF1D86H   LINE      CODE     ---       #459
      00FF1D86H   LINE      CODE     ---       #460
      00FF1D8BH   LINE      CODE     ---       #462
      00FF1D8FH   LINE      CODE     ---       #463
      00FF1D91H   LINE      CODE     ---       #464
      00FF1D91H   LINE      CODE     ---       #465
      00FF1D96H   LINE      CODE     ---       #467
      00FF1D9AH   LINE      CODE     ---       #468
      00FF1D9CH   LINE      CODE     ---       #469
      00FF1D9CH   LINE      CODE     ---       #471
      00FF1DA0H   LINE      CODE     ---       #473
      00FF1DA2H   LINE      CODE     ---       #474
      00FF1DA2H   LINE      CODE     ---       #476
      00FF1DAAH   LINE      CODE     ---       #477
      00FF1DABH   LINE      CODE     ---       #478
      ---         BLOCKEND  ---      ---       LVL=0

      00FF1C00H   BLOCK     CODE     ---       LVL=0
      WR4         REGSYM    ---      INT       error
      00FF1C02H   BLOCK     CODE     NEAR LAB  LVL=1
      DR8         REGSYM    ---      LONG      output
      WR30        REGSYM    ---      INT       derivative
      ---         BLOCKEND  ---      ---       LVL=1
      00FF1C00H   LINE      CODE     ---       #485
      00FF1C02H   LINE      CODE     ---       #486
      00FF1C02H   LINE      CODE     ---       #490
      00FF1C0AH   LINE      CODE     ---       #491
      00FF1C10H   LINE      CODE     ---       #493
      00FF1C18H   LINE      CODE     ---       #494
      00FF1C1AH   LINE      CODE     ---       #495
      00FF1C20H   LINE      CODE     ---       #497
      00FF1C28H   LINE      CODE     ---       #498
      00FF1C28H   LINE      CODE     ---       #500
      00FF1C2EH   LINE      CODE     ---       #501
      00FF1C32H   LINE      CODE     ---       #503
      00FF1C41H   LINE      CODE     ---       #504
      00FF1C52H   LINE      CODE     ---       #505
      00FF1C61H   LINE      CODE     ---       #506
      00FF1C6AH   LINE      CODE     ---       #508
      00FF1C6AH   LINE      CODE     ---       #509
      ---         BLOCKEND  ---      ---       LVL=0

      00FF209EH   BLOCK     CODE     ---       LVL=0
      WR6         REGSYM    ---      INT       error
      WR2         REGSYM    ---      INT       steer
      WR6         REGSYM    ---      INT       left
      WR4         REGSYM    ---      INT       right
      00FF209EH   LINE      CODE     ---       #516
      00FF209EH   LINE      CODE     ---       #517
      00FF209EH   LINE      CODE     ---       #522
      00FF20A3H   LINE      CODE     ---       #523
      00FF20A7H   LINE      CODE     ---       #524
      00FF20ADH   LINE      CODE     ---       #526
      ---         BLOCKEND  ---      ---       LVL=0

      00FF1E9DH   BLOCK     CODE     ---       LVL=0
      00FF1E9DH   LINE      CODE     ---       #534
      00FF1E9DH   LINE      CODE     ---       #536
      00FF1EA3H   LINE      CODE     ---       #538
      00FF1EADH   LINE      CODE     ---       #540
      00FF1EB9H   LINE      CODE     ---       #541
      00FF1EBBH   LINE      CODE     ---       #542
      00FF1EBBH   LINE      CODE     ---       #558
      00FF1EC6H   LINE      CODE     ---       #559
L251 LINKER/LOCATER V4.66.93.0                                                        06/14/2026  09:42:26  PAGE 18


      00FF1EC6H   LINE      CODE     ---       #560
      ---         BLOCKEND  ---      ---       LVL=0

      00FF1FB1H   BLOCK     CODE     ---       LVL=0
      R7          REGSYM    ---      BYTE      mask
      00FF1FB1H   LINE      CODE     ---       #567
      00FF1FB3H   LINE      CODE     ---       #569
      00FF1FC9H   LINE      CODE     ---       #573
      ---         BLOCKEND  ---      ---       LVL=0

      00FF1EC6H   BLOCK     CODE     ---       LVL=0
      R7          REGSYM    ---      BYTE      mask
      00000021H.5 SYMBOL    BIT      BIT       T_State_Now
      00FF1EC6H   LINE      CODE     ---       #580
      00FF1EC6H   LINE      CODE     ---       #581
      00FF1EC6H   LINE      CODE     ---       #584
      00FF1ECBH   LINE      CODE     ---       #586
      00FF1ED1H   LINE      CODE     ---       #588
      00FF1EDBH   LINE      CODE     ---       #589
      00FF1EE1H   LINE      CODE     ---       #590
      00FF1EE3H   LINE      CODE     ---       #591
      00FF1EE5H   LINE      CODE     ---       #592
      00FF1EE5H   LINE      CODE     ---       #594
      00FF1EE8H   LINE      CODE     ---       #596
      00FF1EEAH   LINE      CODE     ---       #597
      00FF1EEBH   LINE      CODE     ---       #600
      00FF1EEDH   LINE      CODE     ---       #601
      00FF1EEDH   LINE      CODE     ---       #602
      ---         BLOCKEND  ---      ---       LVL=0

      00FF001EH   BLOCK     CODE     ---       LVL=0
      R7          REGSYM    ---      BYTE      mask
      00FF001EH   LINE      CODE     ---       #609
      00FF0020H   LINE      CODE     ---       #611
      00FF0024H   LINE      CODE     ---       #613
      00FF0024H   LINE      CODE     ---       #614
      00FF0026H   LINE      CODE     ---       #615
      00FF0026H   LINE      CODE     ---       #617
      00FF002AH   LINE      CODE     ---       #619
      00FF002CH   LINE      CODE     ---       #620
      00FF0034H   LINE      CODE     ---       #621
      00FF003AH   LINE      CODE     ---       #622
      00FF003CH   LINE      CODE     ---       #623
      00FF003CH   LINE      CODE     ---       #625
      00FF0040H   LINE      CODE     ---       #627
      00FF0042H   LINE      CODE     ---       #628
      00FF004AH   LINE      CODE     ---       #629
      00FF0053H   LINE      CODE     ---       #630
      00FF0055H   LINE      CODE     ---       #631
      00FF0055H   LINE      CODE     ---       #633
      00FF0056H   LINE      CODE     ---       #634
      ---         BLOCKEND  ---      ---       LVL=0

      00FF1F13H   BLOCK     CODE     ---       LVL=0
      00FF1F13H   LINE      CODE     ---       #641
      00FF1F13H   LINE      CODE     ---       #643
      00FF1F19H   LINE      CODE     ---       #645
      00FF1F23H   LINE      CODE     ---       #647
      00FF1F29H   LINE      CODE     ---       #649
      00FF1F2BH   LINE      CODE     ---       #650
      00FF1F2DH   LINE      CODE     ---       #651
      00FF1F36H   LINE      CODE     ---       #652
      00FF1F36H   LINE      CODE     ---       #654
      ---         BLOCKEND  ---      ---       LVL=0

L251 LINKER/LOCATER V4.66.93.0                                                        06/14/2026  09:42:26  PAGE 19


      00FF1D13H   BLOCK     CODE     ---       LVL=0
      00FF1D15H   BLOCK     CODE     NEAR LAB  LVL=1
      R15         REGSYM    ---      BYTE      mask
      00000008H   SYMBOL    EDATA    INT       error
      ---         BLOCKEND  ---      ---       LVL=1
      00FF1D13H   LINE      CODE     ---       #661
      00FF1D15H   LINE      CODE     ---       #662
      00FF1D15H   LINE      CODE     ---       #666
      00FF1D1AH   LINE      CODE     ---       #667
      00FF1D1DH   LINE      CODE     ---       #669
      00FF1D24H   LINE      CODE     ---       #671
      00FF1D2AH   LINE      CODE     ---       #672
      00FF1D2EH   LINE      CODE     ---       #673
      00FF1D30H   LINE      CODE     ---       #674
      00FF1D30H   LINE      CODE     ---       #676
      00FF1D34H   LINE      CODE     ---       #678
      00FF1D3EH   LINE      CODE     ---       #679
      00FF1D41H   LINE      CODE     ---       #680
      00FF1D43H   LINE      CODE     ---       #681
      00FF1D43H   LINE      CODE     ---       #683
      00FF1D49H   LINE      CODE     ---       #684
      00FF1D54H   LINE      CODE     ---       #686
      00FF1D5CH   LINE      CODE     ---       #687
      00FF1D5FH   LINE      CODE     ---       #688
      ---         BLOCKEND  ---      ---       LVL=0

      00FF1724H   BLOCK     CODE     ---       LVL=0
      00FF173AH   BLOCK     CODE     NEAR LAB  LVL=1
      0000005CH   SYMBOL    EDATA    WORD      delay_Start_Count
      0000005EH   SYMBOL    EDATA    BYTE      line_ctrl_tick
      ---         BLOCKEND  ---      ---       LVL=1
      00FF1724H   LINE      CODE     ---       #696
      00FF173AH   LINE      CODE     ---       #697
      00FF173AH   LINE      CODE     ---       #701
      00FF173DH   LINE      CODE     ---       #703
      00FF1747H   LINE      CODE     ---       #705
      00FF174DH   LINE      CODE     ---       #706
      00FF1750H   LINE      CODE     ---       #709
      00FF1752H   LINE      CODE     ---       #710
      00FF1752H   LINE      CODE     ---       #711
      00FF1755H   LINE      CODE     ---       #712
      00FF1755H   LINE      CODE     ---       #713
      00FF1758H   LINE      CODE     ---       #715
      00FF175FH   LINE      CODE     ---       #716
      00FF1769H   LINE      CODE     ---       #718
      00FF176FH   LINE      CODE     ---       #719
      00FF1772H   LINE      CODE     ---       #722
      00FF1774H   LINE      CODE     ---       #723
      00FF1774H   LINE      CODE     ---       #724
      00FF1777H   LINE      CODE     ---       #725
      00FF1777H   LINE      CODE     ---       #727
      00FF177AH   LINE      CODE     ---       #729
      00FF1783H   LINE      CODE     ---       #730
      00FF178DH   LINE      CODE     ---       #732
      00FF1793H   LINE      CODE     ---       #733
      00FF1795H   LINE      CODE     ---       #736
      00FF1797H   LINE      CODE     ---       #737
      00FF1797H   LINE      CODE     ---       #738
      00FF1799H   LINE      CODE     ---       #739
      00FF1799H   LINE      CODE     ---       #741
      00FF179CH   LINE      CODE     ---       #743
      00FF17A7H   LINE      CODE     ---       #744
      00FF17B1H   LINE      CODE     ---       #746
      00FF17B7H   LINE      CODE     ---       #747
      00FF17B9H   LINE      CODE     ---       #750
L251 LINKER/LOCATER V4.66.93.0                                                        06/14/2026  09:42:26  PAGE 20


      00FF17BBH   LINE      CODE     ---       #751
      00FF17BBH   LINE      CODE     ---       #752
      00FF17BDH   LINE      CODE     ---       #753
      00FF17BDH   LINE      CODE     ---       #755
      00FF17C0H   LINE      CODE     ---       #757
      00FF17C9H   LINE      CODE     ---       #758
      00FF17D3H   LINE      CODE     ---       #760
      00FF17D9H   LINE      CODE     ---       #761
      00FF17DBH   LINE      CODE     ---       #764
      00FF17DDH   LINE      CODE     ---       #765
      00FF17DDH   LINE      CODE     ---       #766
      00FF17DFH   LINE      CODE     ---       #767
      00FF17DFH   LINE      CODE     ---       #769
      00FF17E2H   LINE      CODE     ---       #771
      00FF17EBH   LINE      CODE     ---       #772
      00FF17F4H   LINE      CODE     ---       #774
      00FF17F9H   LINE      CODE     ---       #775
      00FF17FCH   LINE      CODE     ---       #776
      00FF17FCH   LINE      CODE     ---       #778
      00FF1806H   LINE      CODE     ---       #779
      ---         BLOCKEND  ---      ---       LVL=0

      00FF1C6BH   BLOCK     CODE     ---       LVL=0
      00FF1C6BH   LINE      CODE     ---       #787
      00FF1C6BH   LINE      CODE     ---       #790
      00FF1C6EH   LINE      CODE     ---       #791
      00FF1C71H   LINE      CODE     ---       #792
      00FF1C74H   LINE      CODE     ---       #794
      00FF1C77H   LINE      CODE     ---       #795
      00FF1C7AH   LINE      CODE     ---       #796
      00FF1C7DH   LINE      CODE     ---       #797
      00FF1C80H   LINE      CODE     ---       #798
      00FF1C83H   LINE      CODE     ---       #799
      00FF1C86H   LINE      CODE     ---       #800
      00FF1C89H   LINE      CODE     ---       #801
      00FF1C8CH   LINE      CODE     ---       #802
      00FF1C8FH   LINE      CODE     ---       #803
      00FF1C92H   LINE      CODE     ---       #804
      00FF1C95H   LINE      CODE     ---       #805
      00FF1C98H   LINE      CODE     ---       #806
      00FF1C9BH   LINE      CODE     ---       #808
      00FF1C9EH   LINE      CODE     ---       #809
      00FF1CA1H   LINE      CODE     ---       #810
      00FF1CA4H   LINE      CODE     ---       #811
      00FF1CA7H   LINE      CODE     ---       #812
      00FF1CAAH   LINE      CODE     ---       #814
      00FF1CACH   LINE      CODE     ---       #816
      00FF1CAEH   LINE      CODE     ---       #817
      00FF1CB0H   LINE      CODE     ---       #818
      00FF1CB2H   LINE      CODE     ---       #819
      00FF1CB4H   LINE      CODE     ---       #821
      00FF1CB6H   LINE      CODE     ---       #822
      00FF1CB8H   LINE      CODE     ---       #823
      00FF1CBEH   LINE      CODE     ---       #824
      00FF1CBEH   LINE      CODE     ---       #891
      ---         BLOCKEND  ---      ---       LVL=0

      ---         MODULE    ---      ---       STC32G_GPIO
      00000094H   SFRSYM    DATA     BYTE      P0M0
      000000D0H   SFRSYM    DATA     BYTE      PSW
      0000009DH   SFRSYM    DATA     BYTE      IRCBAND
      00000097H   SFRSYM    DATA     BYTE      AUXR2
      000000EFH   SFRSYM    DATA     BYTE      AUXINTIF
      000000FDH   SFRSYM    DATA     BYTE      S4CON
      000000ACH   SFRSYM    DATA     BYTE      S3CON
L251 LINKER/LOCATER V4.66.93.0                                                        06/14/2026  09:42:26  PAGE 21


      0000009AH   SFRSYM    DATA     BYTE      S2CON
      000000B7H   SFRSYM    DATA     BYTE      IPH
      000000CDH   SFRSYM    DATA     BYTE      SPSTAT
      000000DDH   SFRSYM    DATA     BYTE      T4T3M
      000000C1H   SFRSYM    DATA     BYTE      WDT_CONTR
      000000DFH   SFRSYM    DATA     BYTE      IP3
      000000F4H   SFRSYM    DATA     BYTE      USBCON
      000000B5H   SFRSYM    DATA     BYTE      IP2
      000000FFH   SFRSYM    DATA     BYTE      RSTCFG
      000000C7H   SFRSYM    DATA     BYTE      IAP_CONTR
      000000F9H   SFRSYM    DATA     BYTE      LINICR
      0000008EH   SFRSYM    DATA     BYTE      AUXR
      000000AFH   SFRSYM    DATA     BYTE      IE2
      00000088H   SFRSYM    DATA     BYTE      TCON
      00000089H   SFRSYM    DATA     BYTE      TMOD
      00000098H   SFRSYM    DATA     BYTE      SCON
      000000F1H   SFRSYM    DATA     BYTE      CANICR
      00000087H   SFRSYM    DATA     BYTE      PCON
      000000BCH   SFRSYM    DATA     BYTE      ADC_CONTR
      000000E7H   SFRSYM    DATA     BYTE      CMPCR2
      000000E6H   SFRSYM    DATA     BYTE      CMPCR1
      000000DEH   SFRSYM    DATA     BYTE      ADCCFG
      000000B8H   SFRSYM    DATA     BYTE      IP
      0000008FH   SFRSYM    DATA     BYTE      INTCLKO
      000000EEH   SFRSYM    DATA     BYTE      IP3H
      000000B6H   SFRSYM    DATA     BYTE      IP2H
      000000A8H   SFRSYM    DATA     BYTE      IE
      000000BBH   SFRSYM    DATA     BYTE      P_SW3
      000000BAH   SFRSYM    DATA     BYTE      P_SW2
      000000A2H   SFRSYM    DATA     BYTE      P_SW1
      000000CEH   SFRSYM    DATA     BYTE      SPCTL
      000000F8H   SFRSYM    DATA     BYTE      P7
      000000E1H   SFRSYM    DATA     BYTE      P7M1
      000000E8H   SFRSYM    DATA     BYTE      P6
      000000C8H   SFRSYM    DATA     BYTE      P5
      000000CBH   SFRSYM    DATA     BYTE      P6M1
      000000E2H   SFRSYM    DATA     BYTE      P7M0
      000000C0H   SFRSYM    DATA     BYTE      P4
      000000C9H   SFRSYM    DATA     BYTE      P5M1
      000000CCH   SFRSYM    DATA     BYTE      P6M0
      000000B0H   SFRSYM    DATA     BYTE      P3
      000000B3H   SFRSYM    DATA     BYTE      P4M1
      000000CAH   SFRSYM    DATA     BYTE      P5M0
      000000A0H   SFRSYM    DATA     BYTE      P2
      000000B1H   SFRSYM    DATA     BYTE      P3M1
      000000B4H   SFRSYM    DATA     BYTE      P4M0
      00000090H   SFRSYM    DATA     BYTE      P1
      00000095H   SFRSYM    DATA     BYTE      P2M1
      000000B2H   SFRSYM    DATA     BYTE      P3M0
      00000080H   SFRSYM    DATA     BYTE      P0
      00000091H   SFRSYM    DATA     BYTE      P1M1
      00000096H   SFRSYM    DATA     BYTE      P2M0
      00000092H   SFRSYM    DATA     BYTE      P1M0
      00000093H   SFRSYM    DATA     BYTE      P0M1
      R10         REGSYM    ---      BYTE      GPIO
      REG=0       REGSYM    ---      ---       GPIOx

      ---         MODULE    ---      ---       STC32G_NVIC
      00FF1DACH   PUBLIC    CODE     ---       NVIC_Timer0_Init
      00FF1DF4H   PUBLIC    CODE     ---       NVIC_Timer1_Init
      00FF1F97H   PUBLIC    CODE     ---       NVIC_Timer2_Init
      00FF18DFH   PUBLIC    CODE     ---       NVIC_PWM_Init
      000000F9H.3 SFRSYM    DATA     BIT       PLINH
      000000D0H   SFRSYM    DATA     BYTE      PSW
      000000B6H.5 SFRSYM    DATA     BIT       PCMPH
L251 LINKER/LOCATER V4.66.93.0                                                        06/14/2026  09:42:26  PAGE 22


      0000009DH   SFRSYM    DATA     BYTE      IRCBAND
      00000097H   SFRSYM    DATA     BYTE      AUXR2
      000000F9H.1 SFRSYM    DATA     BIT       LINIE
      000000F1H.0 SFRSYM    DATA     BIT       PCANL
      000000B7H.4 SFRSYM    DATA     BIT       PSH
      000000EFH   SFRSYM    DATA     BYTE      AUXINTIF
      000000F1H.3 SFRSYM    DATA     BIT       PCANH
      000000FDH   SFRSYM    DATA     BYTE      S4CON
      000000ACH   SFRSYM    DATA     BYTE      S3CON
      0000009AH   SFRSYM    DATA     BYTE      S2CON
      000000B7H   SFRSYM    DATA     BYTE      IPH
      000000B7H.5 SFRSYM    DATA     BIT       PADCH
      000000CDH   SFRSYM    DATA     BYTE      SPSTAT
      000000F1H.1 SFRSYM    DATA     BIT       CANIE
      000000E6H.5 SFRSYM    DATA     BIT       PIE
      000000DDH   SFRSYM    DATA     BYTE      T4T3M
      000000E6H.4 SFRSYM    DATA     BIT       NIE
      000000B8H.2 SFRSYM    DATA     BIT       PX1
      000000B8H.0 SFRSYM    DATA     BIT       PX0
      000000C1H   SFRSYM    DATA     BYTE      WDT_CONTR
      000000DFH.1 SFRSYM    DATA     BIT       PS4
      000000DFH.0 SFRSYM    DATA     BIT       PS3
      000000B5H.0 SFRSYM    DATA     BIT       PS2
      000000B8H.3 SFRSYM    DATA     BIT       PT1
      000000B8H.1 SFRSYM    DATA     BIT       PT0
      0000008FH.6 SFRSYM    DATA     BIT       EX4
      0000008FH.5 SFRSYM    DATA     BIT       EX3
      000000B6H.3 SFRSYM    DATA     BIT       PPWMBH
      0000008FH.4 SFRSYM    DATA     BIT       EX2
      000000B6H.2 SFRSYM    DATA     BIT       PPWMAH
      000000A8H.2 SFRSYM    DATA     BIT       EX1
      000000A8H.0 SFRSYM    DATA     BIT       EX0
      000000AFH.6 SFRSYM    DATA     BIT       ET4
      000000AFH.5 SFRSYM    DATA     BIT       ET3
      000000AFH.4 SFRSYM    DATA     BIT       ES4
      000000DFH   SFRSYM    DATA     BYTE      IP3
      000000F4H   SFRSYM    DATA     BYTE      USBCON
      000000AFH.3 SFRSYM    DATA     BIT       ES3
      000000AFH.2 SFRSYM    DATA     BIT       ET2
      000000B5H   SFRSYM    DATA     BYTE      IP2
      000000FFH   SFRSYM    DATA     BYTE      RSTCFG
      000000A8H.3 SFRSYM    DATA     BIT       ET1
      000000AFH.0 SFRSYM    DATA     BIT       ES2
      000000A8H.1 SFRSYM    DATA     BIT       ET0
      000000C7H   SFRSYM    DATA     BYTE      IAP_CONTR
      000000F9H   SFRSYM    DATA     BYTE      LINICR
      0000008EH   SFRSYM    DATA     BYTE      AUXR
      000000AFH   SFRSYM    DATA     BYTE      IE2
      000000B5H.1 SFRSYM    DATA     BIT       PSPI
      000000DFH.2 SFRSYM    DATA     BIT       PRTC
      00000088H   SFRSYM    DATA     BYTE      TCON
      00000089H   SFRSYM    DATA     BYTE      TMOD
      00000098H   SFRSYM    DATA     BYTE      SCON
      000000AFH.1 SFRSYM    DATA     BIT       ESPI
      000000F1H   SFRSYM    DATA     BYTE      CANICR
      00000087H   SFRSYM    DATA     BYTE      PCON
      000000B5H.5 SFRSYM    DATA     BIT       PCMP
      000000BCH   SFRSYM    DATA     BYTE      ADC_CONTR
      000000E7H   SFRSYM    DATA     BYTE      CMPCR2
      000000E6H   SFRSYM    DATA     BYTE      CMPCR1
      000000B8H.4 SFRSYM    DATA     BIT       PS
      000000B7H.2 SFRSYM    DATA     BIT       PX1H
      000000F1H.4 SFRSYM    DATA     BIT       PCAN2L
      000000B7H.0 SFRSYM    DATA     BIT       PX0H
      000000EEH.1 SFRSYM    DATA     BIT       PS4H
L251 LINKER/LOCATER V4.66.93.0                                                        06/14/2026  09:42:26  PAGE 23


      000000EEH.0 SFRSYM    DATA     BIT       PS3H
      000000B6H.0 SFRSYM    DATA     BIT       PS2H
      000000B7H.3 SFRSYM    DATA     BIT       PT1H
      000000F1H.7 SFRSYM    DATA     BIT       PCAN2H
      000000B7H.1 SFRSYM    DATA     BIT       PT0H
      000000DEH   SFRSYM    DATA     BYTE      ADCCFG
      000000B8H   SFRSYM    DATA     BYTE      IP
      000000B8H.5 SFRSYM    DATA     BIT       PADC
      000000A8H.4 SFRSYM    DATA     BIT       ES
      0000008FH   SFRSYM    DATA     BYTE      INTCLKO
      000000EEH   SFRSYM    DATA     BYTE      IP3H
      000000B6H   SFRSYM    DATA     BYTE      IP2H
      000000F1H.5 SFRSYM    DATA     BIT       CAN2IE
      000000A8H   SFRSYM    DATA     BYTE      IE
      000000A8H.5 SFRSYM    DATA     BIT       EADC
      000000BBH   SFRSYM    DATA     BYTE      P_SW3
      000000BAH   SFRSYM    DATA     BYTE      P_SW2
      000000A2H   SFRSYM    DATA     BYTE      P_SW1
      000000B5H.3 SFRSYM    DATA     BIT       PPWMB
      000000CEH   SFRSYM    DATA     BYTE      SPCTL
      000000B5H.2 SFRSYM    DATA     BIT       PPWMA
      000000F8H   SFRSYM    DATA     BYTE      P7
      000000B6H.1 SFRSYM    DATA     BIT       PSPIH
      000000E8H   SFRSYM    DATA     BYTE      P6
      000000C8H   SFRSYM    DATA     BYTE      P5
      000000C0H   SFRSYM    DATA     BYTE      P4
      000000B0H   SFRSYM    DATA     BYTE      P3
      000000EEH.2 SFRSYM    DATA     BIT       PRTCH
      000000A0H   SFRSYM    DATA     BYTE      P2
      00000090H   SFRSYM    DATA     BYTE      P1
      000000F9H.0 SFRSYM    DATA     BIT       PLINL
      00000080H   SFRSYM    DATA     BYTE      P0

      00FF1DACH   BLOCK     CODE     ---       LVL=0
      R7          REGSYM    ---      BYTE      State
      R6          REGSYM    ---      BYTE      Priority
      00FF1DACH   LINE      CODE     ---       #24
      00FF1DB0H   LINE      CODE     ---       #26
      00FF1DC4H   LINE      CODE     ---       #27
      00FF1DF2H   LINE      CODE     ---       #28
      00FF1DF3H   LINE      CODE     ---       #29
      ---         BLOCKEND  ---      ---       LVL=0

      00FF1DF4H   BLOCK     CODE     ---       LVL=0
      R7          REGSYM    ---      BYTE      State
      R6          REGSYM    ---      BYTE      Priority
      00FF1DF4H   LINE      CODE     ---       #39
      00FF1DF8H   LINE      CODE     ---       #41
      00FF1E0CH   LINE      CODE     ---       #42
      00FF1E3AH   LINE      CODE     ---       #43
      00FF1E3BH   LINE      CODE     ---       #44
      ---         BLOCKEND  ---      ---       LVL=0

      00FF1F97H   BLOCK     CODE     ---       LVL=0
      R7          REGSYM    ---      BYTE      State
      00FF1F97H   LINE      CODE     ---       #54
      00FF1F99H   LINE      CODE     ---       #56
      00FF1FAFH   LINE      CODE     ---       #57
      00FF1FAFH   LINE      CODE     ---       #58
      00FF1FB0H   LINE      CODE     ---       #59
      ---         BLOCKEND  ---      ---       LVL=0
      R7          REGSYM    ---      BYTE      State
      R7          REGSYM    ---      BYTE      State
      R7          REGSYM    ---      BYTE      State
      R6          REGSYM    ---      BYTE      Priority
L251 LINKER/LOCATER V4.66.93.0                                                        06/14/2026  09:42:26  PAGE 24


      R7          REGSYM    ---      BYTE      State
      R6          REGSYM    ---      BYTE      Priority
      R7          REGSYM    ---      BYTE      State
      R7          REGSYM    ---      BYTE      State
      R7          REGSYM    ---      BYTE      State
      R7          REGSYM    ---      BYTE      State
      R6          REGSYM    ---      BYTE      Priority
      R7          REGSYM    ---      BYTE      State
      R10         REGSYM    ---      BYTE      Priority
      R3          REGSYM    ---      BYTE      Mode
      R10         REGSYM    ---      BYTE      State
      R2          REGSYM    ---      BYTE      Priority
      R7          REGSYM    ---      BYTE      State
      R6          REGSYM    ---      BYTE      Priority
      R7          REGSYM    ---      BYTE      State
      R6          REGSYM    ---      BYTE      Priority
      R7          REGSYM    ---      BYTE      State
      R6          REGSYM    ---      BYTE      Priority
      R7          REGSYM    ---      BYTE      State
      R6          REGSYM    ---      BYTE      Priority
      R7          REGSYM    ---      BYTE      State
      R6          REGSYM    ---      BYTE      Priority
      R3          REGSYM    ---      BYTE      State
      R10         REGSYM    ---      BYTE      Priority

      00FF18DFH   BLOCK     CODE     ---       LVL=0
      R6          REGSYM    ---      BYTE      Channel
      R3          REGSYM    ---      BYTE      State
      R2          REGSYM    ---      BYTE      Priority
      00FF18DFH   LINE      CODE     ---       #329
      00FF18E5H   LINE      CODE     ---       #331
      00FF18EDH   LINE      CODE     ---       #332
      00FF18F5H   LINE      CODE     ---       #333
      00FF18FEH   LINE      CODE     ---       #335
      00FF18FEH   LINE      CODE     ---       #336
      00FF1909H   LINE      CODE     ---       #337
      00FF1931H   LINE      CODE     ---       #338
      00FF1933H   LINE      CODE     ---       #340
      00FF1933H   LINE      CODE     ---       #341
      00FF193EH   LINE      CODE     ---       #342
      00FF1966H   LINE      CODE     ---       #343
      00FF1968H   LINE      CODE     ---       #345
      00FF1968H   LINE      CODE     ---       #346
      00FF1973H   LINE      CODE     ---       #347
      00FF1973H   LINE      CODE     ---       #348
      00FF1973H   LINE      CODE     ---       #349
      00FF1973H   LINE      CODE     ---       #350
      00FF1974H   LINE      CODE     ---       #351
      ---         BLOCKEND  ---      ---       LVL=0
      R9          REGSYM    ---      BYTE      State
      R3          REGSYM    ---      BYTE      Priority
      R10         REGSYM    ---      BYTE      Bus_Priority
      R9          REGSYM    ---      BYTE      State
      R3          REGSYM    ---      BYTE      Priority
      R10         REGSYM    ---      BYTE      Bus_Priority
      R9          REGSYM    ---      BYTE      State
      R3          REGSYM    ---      BYTE      Priority
      R10         REGSYM    ---      BYTE      Bus_Priority
      R9          REGSYM    ---      BYTE      State
      R3          REGSYM    ---      BYTE      Priority
      R10         REGSYM    ---      BYTE      Bus_Priority
      R9          REGSYM    ---      BYTE      State
      R3          REGSYM    ---      BYTE      Priority
      R10         REGSYM    ---      BYTE      Bus_Priority
      R9          REGSYM    ---      BYTE      State
L251 LINKER/LOCATER V4.66.93.0                                                        06/14/2026  09:42:26  PAGE 25


      R3          REGSYM    ---      BYTE      Priority
      R10         REGSYM    ---      BYTE      Bus_Priority
      R9          REGSYM    ---      BYTE      State
      R3          REGSYM    ---      BYTE      Priority
      R10         REGSYM    ---      BYTE      Bus_Priority
      R9          REGSYM    ---      BYTE      State
      R3          REGSYM    ---      BYTE      Priority
      R10         REGSYM    ---      BYTE      Bus_Priority
      R9          REGSYM    ---      BYTE      State
      R3          REGSYM    ---      BYTE      Priority
      R10         REGSYM    ---      BYTE      Bus_Priority
      R9          REGSYM    ---      BYTE      State
      R3          REGSYM    ---      BYTE      Priority
      R10         REGSYM    ---      BYTE      Bus_Priority
      R9          REGSYM    ---      BYTE      State
      R3          REGSYM    ---      BYTE      Priority
      R10         REGSYM    ---      BYTE      Bus_Priority
      R9          REGSYM    ---      BYTE      State
      R3          REGSYM    ---      BYTE      Priority
      R10         REGSYM    ---      BYTE      Bus_Priority
      R9          REGSYM    ---      BYTE      State
      R10         REGSYM    ---      BYTE      Priority
      R9          REGSYM    ---      BYTE      State
      R3          REGSYM    ---      BYTE      Priority
      R10         REGSYM    ---      BYTE      Bus_Priority
      R9          REGSYM    ---      BYTE      State
      R3          REGSYM    ---      BYTE      Priority
      R10         REGSYM    ---      BYTE      Bus_Priority
      R11         REGSYM    ---      BYTE      Channel
      R10         REGSYM    ---      BYTE      State
      R6          REGSYM    ---      BYTE      Priority
      R7          REGSYM    ---      BYTE      State
      R6          REGSYM    ---      BYTE      Priority

      ---         MODULE    ---      ---       STC32G_PWM
      00FF15A9H   PUBLIC    CODE     ---       UpdatePwm
      00FF0D76H   PUBLIC    CODE     ---       PWM_Configuration
      000000D0H   SFRSYM    DATA     BYTE      PSW
      0000009DH   SFRSYM    DATA     BYTE      IRCBAND
      00000097H   SFRSYM    DATA     BYTE      AUXR2
      000000EFH   SFRSYM    DATA     BYTE      AUXINTIF
      000000FDH   SFRSYM    DATA     BYTE      S4CON
      000000ACH   SFRSYM    DATA     BYTE      S3CON
      0000009AH   SFRSYM    DATA     BYTE      S2CON
      000000B7H   SFRSYM    DATA     BYTE      IPH
      000000CDH   SFRSYM    DATA     BYTE      SPSTAT
      000000DDH   SFRSYM    DATA     BYTE      T4T3M
      000000C1H   SFRSYM    DATA     BYTE      WDT_CONTR
      000000DFH   SFRSYM    DATA     BYTE      IP3
      000000F4H   SFRSYM    DATA     BYTE      USBCON
      000000B5H   SFRSYM    DATA     BYTE      IP2
      000000FFH   SFRSYM    DATA     BYTE      RSTCFG
      000000C7H   SFRSYM    DATA     BYTE      IAP_CONTR
      000000F9H   SFRSYM    DATA     BYTE      LINICR
      0000008EH   SFRSYM    DATA     BYTE      AUXR
      000000AFH   SFRSYM    DATA     BYTE      IE2
      00000088H   SFRSYM    DATA     BYTE      TCON
      00000089H   SFRSYM    DATA     BYTE      TMOD
      00000098H   SFRSYM    DATA     BYTE      SCON
      000000F1H   SFRSYM    DATA     BYTE      CANICR
      00000087H   SFRSYM    DATA     BYTE      PCON
      000000BCH   SFRSYM    DATA     BYTE      ADC_CONTR
      000000E7H   SFRSYM    DATA     BYTE      CMPCR2
      000000E6H   SFRSYM    DATA     BYTE      CMPCR1
      000000DEH   SFRSYM    DATA     BYTE      ADCCFG
L251 LINKER/LOCATER V4.66.93.0                                                        06/14/2026  09:42:26  PAGE 26


      000000B8H   SFRSYM    DATA     BYTE      IP
      0000008FH   SFRSYM    DATA     BYTE      INTCLKO
      000000EEH   SFRSYM    DATA     BYTE      IP3H
      000000B6H   SFRSYM    DATA     BYTE      IP2H
      000000A8H   SFRSYM    DATA     BYTE      IE
      000000BBH   SFRSYM    DATA     BYTE      P_SW3
      000000BAH   SFRSYM    DATA     BYTE      P_SW2
      000000A2H   SFRSYM    DATA     BYTE      P_SW1
      000000CEH   SFRSYM    DATA     BYTE      SPCTL
      000000F8H   SFRSYM    DATA     BYTE      P7
      000000E8H   SFRSYM    DATA     BYTE      P6
      000000C8H   SFRSYM    DATA     BYTE      P5
      000000C0H   SFRSYM    DATA     BYTE      P4
      000000B0H   SFRSYM    DATA     BYTE      P3
      000000A0H   SFRSYM    DATA     BYTE      P2
      00000090H   SFRSYM    DATA     BYTE      P1
      00000080H   SFRSYM    DATA     BYTE      P0

      00FF0D76H   BLOCK     CODE     ---       LVL=0
      R7          REGSYM    ---      BYTE      PWM
      REG=7       REGSYM    ---      ---       PWMx
      00FF0D76H   LINE      CODE     ---       #23
      00FF0D7AH   LINE      CODE     ---       #25
      00FF0D83H   LINE      CODE     ---       #27
      00FF0D93H   LINE      CODE     ---       #28
      00FF0D9BH   LINE      CODE     ---       #29
      00FF0DABH   LINE      CODE     ---       #30
      00FF0DB9H   LINE      CODE     ---       #32
      00FF0DC2H   LINE      CODE     ---       #34
      00FF0DCAH   LINE      CODE     ---       #35
      00FF0DD7H   LINE      CODE     ---       #36
      00FF0DD9H   LINE      CODE     ---       #39
      00FF0DE1H   LINE      CODE     ---       #40
      00FF0DF1H   LINE      CODE     ---       #41
      00FF0DF1H   LINE      CODE     ---       #42
      00FF0DF6H   LINE      CODE     ---       #44
      00FF0DFEH   LINE      CODE     ---       #45
      00FF0E0EH   LINE      CODE     ---       #46
      00FF0E10H   LINE      CODE     ---       #49
      00FF0E18H   LINE      CODE     ---       #50
      00FF0E28H   LINE      CODE     ---       #51
      00FF0E28H   LINE      CODE     ---       #53
      00FF0E3BH   LINE      CODE     ---       #54
      00FF0E3EH   LINE      CODE     ---       #55
      00FF0E3EH   LINE      CODE     ---       #57
      00FF0E47H   LINE      CODE     ---       #59
      00FF0E57H   LINE      CODE     ---       #60
      00FF0E5FH   LINE      CODE     ---       #61
      00FF0E6FH   LINE      CODE     ---       #62
      00FF0E7DH   LINE      CODE     ---       #64
      00FF0E86H   LINE      CODE     ---       #66
      00FF0E8EH   LINE      CODE     ---       #67
      00FF0E9BH   LINE      CODE     ---       #68
      00FF0E9DH   LINE      CODE     ---       #71
      00FF0EA5H   LINE      CODE     ---       #72
      00FF0EB5H   LINE      CODE     ---       #73
      00FF0EB5H   LINE      CODE     ---       #74
      00FF0EBAH   LINE      CODE     ---       #76
      00FF0EC2H   LINE      CODE     ---       #77
      00FF0ED2H   LINE      CODE     ---       #78
      00FF0ED4H   LINE      CODE     ---       #81
      00FF0EDCH   LINE      CODE     ---       #82
      00FF0EECH   LINE      CODE     ---       #83
      00FF0EECH   LINE      CODE     ---       #85
      00FF0EFFH   LINE      CODE     ---       #86
L251 LINKER/LOCATER V4.66.93.0                                                        06/14/2026  09:42:26  PAGE 27


      00FF0F02H   LINE      CODE     ---       #87
      00FF0F02H   LINE      CODE     ---       #89
      00FF0F0BH   LINE      CODE     ---       #91
      00FF0F1BH   LINE      CODE     ---       #92
      00FF0F23H   LINE      CODE     ---       #93
      00FF0F33H   LINE      CODE     ---       #94
      00FF0F41H   LINE      CODE     ---       #96
      00FF0F4AH   LINE      CODE     ---       #98
      00FF0F52H   LINE      CODE     ---       #99
      00FF0F5FH   LINE      CODE     ---       #100
      00FF0F61H   LINE      CODE     ---       #103
      00FF0F69H   LINE      CODE     ---       #104
      00FF0F79H   LINE      CODE     ---       #105
      00FF0F79H   LINE      CODE     ---       #106
      00FF0F7EH   LINE      CODE     ---       #108
      00FF0F86H   LINE      CODE     ---       #109
      00FF0F96H   LINE      CODE     ---       #110
      00FF0F98H   LINE      CODE     ---       #113
      00FF0FA0H   LINE      CODE     ---       #114
      00FF0FB0H   LINE      CODE     ---       #115
      00FF0FB0H   LINE      CODE     ---       #117
      00FF0FC3H   LINE      CODE     ---       #118
      00FF0FC6H   LINE      CODE     ---       #119
      00FF0FC6H   LINE      CODE     ---       #121
      00FF0FCFH   LINE      CODE     ---       #123
      00FF0FDFH   LINE      CODE     ---       #124
      00FF0FE7H   LINE      CODE     ---       #125
      00FF0FF7H   LINE      CODE     ---       #126
      00FF1005H   LINE      CODE     ---       #128
      00FF100EH   LINE      CODE     ---       #130
      00FF1016H   LINE      CODE     ---       #131
      00FF1023H   LINE      CODE     ---       #132
      00FF1025H   LINE      CODE     ---       #135
      00FF102DH   LINE      CODE     ---       #136
      00FF103DH   LINE      CODE     ---       #137
      00FF103DH   LINE      CODE     ---       #138
      00FF1042H   LINE      CODE     ---       #140
      00FF104AH   LINE      CODE     ---       #141
      00FF105AH   LINE      CODE     ---       #142
      00FF105CH   LINE      CODE     ---       #145
      00FF1064H   LINE      CODE     ---       #146
      00FF1074H   LINE      CODE     ---       #147
      00FF1074H   LINE      CODE     ---       #149
      00FF1087H   LINE      CODE     ---       #150
      00FF108AH   LINE      CODE     ---       #151
      00FF108AH   LINE      CODE     ---       #153
      00FF108EH   LINE      CODE     ---       #160
      00FF109DH   LINE      CODE     ---       #161
      00FF10AFH   LINE      CODE     ---       #162
      00FF10D5H   LINE      CODE     ---       #163
      00FF10F9H   LINE      CODE     ---       #164
      00FF10FCH   LINE      CODE     ---       #165
      00FF10FCH   LINE      CODE     ---       #167
      00FF1105H   LINE      CODE     ---       #169
      00FF1115H   LINE      CODE     ---       #170
      00FF1125H   LINE      CODE     ---       #171
      00FF1133H   LINE      CODE     ---       #173
      00FF113AH   LINE      CODE     ---       #175
      00FF1142H   LINE      CODE     ---       #176
      00FF1152H   LINE      CODE     ---       #177
      00FF1154H   LINE      CODE     ---       #180
      00FF115CH   LINE      CODE     ---       #181
      00FF116CH   LINE      CODE     ---       #182
      00FF116CH   LINE      CODE     ---       #184
      00FF117FH   LINE      CODE     ---       #185
L251 LINKER/LOCATER V4.66.93.0                                                        06/14/2026  09:42:26  PAGE 28


      00FF1182H   LINE      CODE     ---       #186
      00FF1182H   LINE      CODE     ---       #188
      00FF118BH   LINE      CODE     ---       #190
      00FF119BH   LINE      CODE     ---       #191
      00FF11ABH   LINE      CODE     ---       #192
      00FF11B9H   LINE      CODE     ---       #194
      00FF11C0H   LINE      CODE     ---       #196
      00FF11C8H   LINE      CODE     ---       #197
      00FF11D8H   LINE      CODE     ---       #198
      00FF11DAH   LINE      CODE     ---       #201
      00FF11E2H   LINE      CODE     ---       #202
      00FF11F2H   LINE      CODE     ---       #203
      00FF11F2H   LINE      CODE     ---       #205
      00FF1205H   LINE      CODE     ---       #206
      00FF1208H   LINE      CODE     ---       #207
      00FF1208H   LINE      CODE     ---       #209
      00FF1211H   LINE      CODE     ---       #211
      00FF1221H   LINE      CODE     ---       #212
      00FF1231H   LINE      CODE     ---       #213
      00FF123FH   LINE      CODE     ---       #215
      00FF1246H   LINE      CODE     ---       #217
      00FF124EH   LINE      CODE     ---       #218
      00FF125EH   LINE      CODE     ---       #219
      00FF1260H   LINE      CODE     ---       #222
      00FF1268H   LINE      CODE     ---       #223
      00FF1278H   LINE      CODE     ---       #224
      00FF1278H   LINE      CODE     ---       #226
      00FF128BH   LINE      CODE     ---       #227
      00FF128EH   LINE      CODE     ---       #228
      00FF128EH   LINE      CODE     ---       #230
      00FF1297H   LINE      CODE     ---       #232
      00FF12A7H   LINE      CODE     ---       #233
      00FF12B7H   LINE      CODE     ---       #234
      00FF12C5H   LINE      CODE     ---       #236
      00FF12CCH   LINE      CODE     ---       #238
      00FF12D4H   LINE      CODE     ---       #239
      00FF12E4H   LINE      CODE     ---       #240
      00FF12E6H   LINE      CODE     ---       #243
      00FF12EEH   LINE      CODE     ---       #244
      00FF12FEH   LINE      CODE     ---       #245
      00FF12FEH   LINE      CODE     ---       #247
      00FF1318H   LINE      CODE     ---       #248
      00FF131AH   LINE      CODE     ---       #249
      00FF131AH   LINE      CODE     ---       #251
      00FF131EH   LINE      CODE     ---       #258
      00FF132DH   LINE      CODE     ---       #259
      00FF133FH   LINE      CODE     ---       #260
      00FF1365H   LINE      CODE     ---       #261
      00FF138BH   LINE      CODE     ---       #262
      00FF138DH   LINE      CODE     ---       #263
      00FF138DH   LINE      CODE     ---       #265
      00FF138FH   LINE      CODE     ---       #266
      ---         BLOCKEND  ---      ---       LVL=0

      00FF15A9H   BLOCK     CODE     ---       LVL=0
      R11         REGSYM    ---      BYTE      PWM
      REG=7       REGSYM    ---      ---       PWMx
      00FF15A9H   LINE      CODE     ---       #275
      00FF15ABH   LINE      CODE     ---       #277
      00FF15DAH   LINE      CODE     ---       #279
      00FF15DAH   LINE      CODE     ---       #280
      00FF15ECH   LINE      CODE     ---       #281
      00FF15EFH   LINE      CODE     ---       #283
      00FF15EFH   LINE      CODE     ---       #284
      00FF1602H   LINE      CODE     ---       #285
L251 LINKER/LOCATER V4.66.93.0                                                        06/14/2026  09:42:26  PAGE 29


      00FF1605H   LINE      CODE     ---       #287
      00FF1605H   LINE      CODE     ---       #288
      00FF1618H   LINE      CODE     ---       #289
      00FF161BH   LINE      CODE     ---       #291
      00FF161BH   LINE      CODE     ---       #292
      00FF162EH   LINE      CODE     ---       #293
      00FF1631H   LINE      CODE     ---       #295
      00FF1631H   LINE      CODE     ---       #296
      00FF1644H   LINE      CODE     ---       #297
      00FF1647H   LINE      CODE     ---       #299
      00FF1647H   LINE      CODE     ---       #300
      00FF165AH   LINE      CODE     ---       #301
      00FF165DH   LINE      CODE     ---       #303
      00FF165DH   LINE      CODE     ---       #304
      00FF1670H   LINE      CODE     ---       #305
      00FF1673H   LINE      CODE     ---       #307
      00FF1673H   LINE      CODE     ---       #308
      00FF1686H   LINE      CODE     ---       #309
      00FF1689H   LINE      CODE     ---       #311
      00FF1689H   LINE      CODE     ---       #312
      00FF169EH   LINE      CODE     ---       #313
      00FF16B0H   LINE      CODE     ---       #314
      00FF16C2H   LINE      CODE     ---       #315
      00FF16D1H   LINE      CODE     ---       #316
      00FF16D3H   LINE      CODE     ---       #318
      00FF16D3H   LINE      CODE     ---       #319
      00FF16E9H   LINE      CODE     ---       #320
      00FF16FBH   LINE      CODE     ---       #321
      00FF170DH   LINE      CODE     ---       #322
      00FF1723H   LINE      CODE     ---       #323
      00FF1723H   LINE      CODE     ---       #324
      00FF1723H   LINE      CODE     ---       #325
      ---         BLOCKEND  ---      ---       LVL=0
      R10         REGSYM    ---      BYTE      addr
      R11         REGSYM    ---      BYTE      dat
      R10         REGSYM    ---      BYTE      addr
      R11         REGSYM    ---      BYTE      dat
      R2          REGSYM    ---      BYTE      addr
      R10         REGSYM    ---      BYTE      dat
      R2          REGSYM    ---      BYTE      addr
      R10         REGSYM    ---      BYTE      dat
      R7          REGSYM    ---      BYTE      PWM
      REG=3       REGSYM    ---      ---       PWMx
      R11         REGSYM    ---      BYTE      PWM
      REG=3       REGSYM    ---      ---       PWMx

      ---         MODULE    ---      ---       STC32G_PWM_Isr
      00FF1A07H   PUBLIC    CODE     ---       PWMA_ISR_Handler
      00FF1A8CH   PUBLIC    CODE     ---       PWMB_ISR_Handler
      000000D0H   SFRSYM    DATA     BYTE      PSW
      0000009DH   SFRSYM    DATA     BYTE      IRCBAND
      00000097H   SFRSYM    DATA     BYTE      AUXR2
      000000EFH   SFRSYM    DATA     BYTE      AUXINTIF
      000000FDH   SFRSYM    DATA     BYTE      S4CON
      000000ACH   SFRSYM    DATA     BYTE      S3CON
      0000009AH   SFRSYM    DATA     BYTE      S2CON
      000000B7H   SFRSYM    DATA     BYTE      IPH
      000000CDH   SFRSYM    DATA     BYTE      SPSTAT
      000000DDH   SFRSYM    DATA     BYTE      T4T3M
      000000C1H   SFRSYM    DATA     BYTE      WDT_CONTR
      000000DFH   SFRSYM    DATA     BYTE      IP3
      000000F4H   SFRSYM    DATA     BYTE      USBCON
      000000B5H   SFRSYM    DATA     BYTE      IP2
      000000FFH   SFRSYM    DATA     BYTE      RSTCFG
      000000C7H   SFRSYM    DATA     BYTE      IAP_CONTR
L251 LINKER/LOCATER V4.66.93.0                                                        06/14/2026  09:42:26  PAGE 30


      000000F9H   SFRSYM    DATA     BYTE      LINICR
      0000008EH   SFRSYM    DATA     BYTE      AUXR
      000000AFH   SFRSYM    DATA     BYTE      IE2
      00000088H   SFRSYM    DATA     BYTE      TCON
      00000089H   SFRSYM    DATA     BYTE      TMOD
      00000098H   SFRSYM    DATA     BYTE      SCON
      000000F1H   SFRSYM    DATA     BYTE      CANICR
      00000087H   SFRSYM    DATA     BYTE      PCON
      000000BCH   SFRSYM    DATA     BYTE      ADC_CONTR
      000000E7H   SFRSYM    DATA     BYTE      CMPCR2
      000000E6H   SFRSYM    DATA     BYTE      CMPCR1
      000000DEH   SFRSYM    DATA     BYTE      ADCCFG
      000000B8H   SFRSYM    DATA     BYTE      IP
      0000008FH   SFRSYM    DATA     BYTE      INTCLKO
      000000EEH   SFRSYM    DATA     BYTE      IP3H
      000000B6H   SFRSYM    DATA     BYTE      IP2H
      000000A8H   SFRSYM    DATA     BYTE      IE
      000000BBH   SFRSYM    DATA     BYTE      P_SW3
      000000BAH   SFRSYM    DATA     BYTE      P_SW2
      000000A2H   SFRSYM    DATA     BYTE      P_SW1
      000000CEH   SFRSYM    DATA     BYTE      SPCTL
      000000F8H   SFRSYM    DATA     BYTE      P7
      000000E8H   SFRSYM    DATA     BYTE      P6
      000000C8H   SFRSYM    DATA     BYTE      P5
      000000C0H   SFRSYM    DATA     BYTE      P4
      000000B0H   SFRSYM    DATA     BYTE      P3
      000000A0H   SFRSYM    DATA     BYTE      P2
      00000090H   SFRSYM    DATA     BYTE      P1
      00000080H   SFRSYM    DATA     BYTE      P0

      00FF1A07H   BLOCK     CODE     ---       LVL=0
      00FF1A07H   LINE      CODE     ---       #23
      00FF1A0DH   LINE      CODE     ---       #26
      00FF1A1BH   LINE      CODE     ---       #28
      00FF1A23H   LINE      CODE     ---       #30
      00FF1A23H   LINE      CODE     ---       #31
      00FF1A29H   LINE      CODE     ---       #33
      00FF1A31H   LINE      CODE     ---       #35
      00FF1A31H   LINE      CODE     ---       #36
      00FF1A37H   LINE      CODE     ---       #38
      00FF1A3FH   LINE      CODE     ---       #40
      00FF1A3FH   LINE      CODE     ---       #41
      00FF1A45H   LINE      CODE     ---       #43
      00FF1A4DH   LINE      CODE     ---       #45
      00FF1A4DH   LINE      CODE     ---       #46
      00FF1A53H   LINE      CODE     ---       #48
      00FF1A5BH   LINE      CODE     ---       #50
      00FF1A5BH   LINE      CODE     ---       #51
      00FF1A61H   LINE      CODE     ---       #53
      00FF1A69H   LINE      CODE     ---       #55
      00FF1A69H   LINE      CODE     ---       #56
      00FF1A6FH   LINE      CODE     ---       #58
      00FF1A77H   LINE      CODE     ---       #60
      00FF1A77H   LINE      CODE     ---       #61
      00FF1A7DH   LINE      CODE     ---       #63
      00FF1A85H   LINE      CODE     ---       #65
      ---         BLOCKEND  ---      ---       LVL=0

      00FF1A8CH   BLOCK     CODE     ---       LVL=0
      00FF1A8CH   LINE      CODE     ---       #75
      00FF1A92H   LINE      CODE     ---       #78
      00FF1AA0H   LINE      CODE     ---       #80
      00FF1AA8H   LINE      CODE     ---       #82
      00FF1AA8H   LINE      CODE     ---       #83
      00FF1AAEH   LINE      CODE     ---       #85
L251 LINKER/LOCATER V4.66.93.0                                                        06/14/2026  09:42:26  PAGE 31


      00FF1AB6H   LINE      CODE     ---       #87
      00FF1AB6H   LINE      CODE     ---       #88
      00FF1ABCH   LINE      CODE     ---       #90
      00FF1AC4H   LINE      CODE     ---       #92
      00FF1AC4H   LINE      CODE     ---       #93
      00FF1ACAH   LINE      CODE     ---       #95
      00FF1AD2H   LINE      CODE     ---       #97
      00FF1AD2H   LINE      CODE     ---       #98
      00FF1AD8H   LINE      CODE     ---       #100
      00FF1AE0H   LINE      CODE     ---       #102
      00FF1AE0H   LINE      CODE     ---       #103
      00FF1AE6H   LINE      CODE     ---       #105
      00FF1AEEH   LINE      CODE     ---       #107
      00FF1AEEH   LINE      CODE     ---       #108
      00FF1AF4H   LINE      CODE     ---       #110
      00FF1AFCH   LINE      CODE     ---       #112
      00FF1AFCH   LINE      CODE     ---       #113
      00FF1B02H   LINE      CODE     ---       #115
      00FF1B0AH   LINE      CODE     ---       #117
      ---         BLOCKEND  ---      ---       LVL=0

      ---         MODULE    ---      ---       STC32G_Timer
      00FF1390H   PUBLIC    CODE     ---       Timer_Inilize
      0000008EH.3 SFRSYM    DATA     BIT       T2_CT
      00000089H.6 SFRSYM    DATA     BIT       T1_CT
      00000089H.2 SFRSYM    DATA     BIT       T0_CT
      000000D0H   SFRSYM    DATA     BYTE      PSW
      0000009DH   SFRSYM    DATA     BYTE      IRCBAND
      00000097H   SFRSYM    DATA     BYTE      AUXR2
      000000EFH   SFRSYM    DATA     BYTE      AUXINTIF
      000000FDH   SFRSYM    DATA     BYTE      S4CON
      000000ACH   SFRSYM    DATA     BYTE      S3CON
      0000009AH   SFRSYM    DATA     BYTE      S2CON
      000000DDH.5 SFRSYM    DATA     BIT       T4x12
      000000DDH.1 SFRSYM    DATA     BIT       T3x12
      0000008EH.2 SFRSYM    DATA     BIT       T2x12
      0000008EH.6 SFRSYM    DATA     BIT       T1x12
      000000B7H   SFRSYM    DATA     BYTE      IPH
      000000CDH   SFRSYM    DATA     BYTE      SPSTAT
      0000008EH.7 SFRSYM    DATA     BIT       T0x12
      000000DDH   SFRSYM    DATA     BYTE      T4T3M
      000000DDH.7 SFRSYM    DATA     BIT       T4R
      000000DDH.3 SFRSYM    DATA     BIT       T3R
      0000008EH.4 SFRSYM    DATA     BIT       T2R
      000000C1H   SFRSYM    DATA     BYTE      WDT_CONTR
      00000088H.6 SFRSYM    DATA     BIT       TR1
      00000088H.4 SFRSYM    DATA     BIT       TR0
      000000D3H   SFRSYM    DATA     BYTE      T4L
      000000D5H   SFRSYM    DATA     BYTE      T3L
      000000D7H   SFRSYM    DATA     BYTE      T2L
      0000008BH   SFRSYM    DATA     BYTE      TL1
      0000008AH   SFRSYM    DATA     BYTE      TL0
      000000D2H   SFRSYM    DATA     BYTE      T4H
      000000D4H   SFRSYM    DATA     BYTE      T3H
      000000D6H   SFRSYM    DATA     BYTE      T2H
      0000008DH   SFRSYM    DATA     BYTE      TH1
      0000008CH   SFRSYM    DATA     BYTE      TH0
      000000DFH   SFRSYM    DATA     BYTE      IP3
      000000F4H   SFRSYM    DATA     BYTE      USBCON
      000000B5H   SFRSYM    DATA     BYTE      IP2
      000000FFH   SFRSYM    DATA     BYTE      RSTCFG
      000000C7H   SFRSYM    DATA     BYTE      IAP_CONTR
      000000F9H   SFRSYM    DATA     BYTE      LINICR
      0000008EH   SFRSYM    DATA     BYTE      AUXR
      000000AFH   SFRSYM    DATA     BYTE      IE2
L251 LINKER/LOCATER V4.66.93.0                                                        06/14/2026  09:42:26  PAGE 32


      00000088H   SFRSYM    DATA     BYTE      TCON
      00000089H   SFRSYM    DATA     BYTE      TMOD
      00000098H   SFRSYM    DATA     BYTE      SCON
      000000DDH.4 SFRSYM    DATA     BIT       T4CLKO
      000000DDH.0 SFRSYM    DATA     BIT       T3CLKO
      000000F1H   SFRSYM    DATA     BYTE      CANICR
      00000087H   SFRSYM    DATA     BYTE      PCON
      0000008FH.2 SFRSYM    DATA     BIT       T2CLKO
      000000BCH   SFRSYM    DATA     BYTE      ADC_CONTR
      0000008FH.1 SFRSYM    DATA     BIT       T1CLKO
      0000008FH.0 SFRSYM    DATA     BIT       T0CLKO
      000000E7H   SFRSYM    DATA     BYTE      CMPCR2
      000000E6H   SFRSYM    DATA     BYTE      CMPCR1
      000000DEH   SFRSYM    DATA     BYTE      ADCCFG
      000000B8H   SFRSYM    DATA     BYTE      IP
      0000008FH   SFRSYM    DATA     BYTE      INTCLKO
      000000EEH   SFRSYM    DATA     BYTE      IP3H
      000000B6H   SFRSYM    DATA     BYTE      IP2H
      000000A8H   SFRSYM    DATA     BYTE      IE
      000000BBH   SFRSYM    DATA     BYTE      P_SW3
      000000BAH   SFRSYM    DATA     BYTE      P_SW2
      000000A2H   SFRSYM    DATA     BYTE      P_SW1
      000000CEH   SFRSYM    DATA     BYTE      SPCTL
      000000F8H   SFRSYM    DATA     BYTE      P7
      000000E8H   SFRSYM    DATA     BYTE      P6
      000000C8H   SFRSYM    DATA     BYTE      P5
      000000C0H   SFRSYM    DATA     BYTE      P4
      000000B0H   SFRSYM    DATA     BYTE      P3
      000000A0H   SFRSYM    DATA     BYTE      P2
      00000090H   SFRSYM    DATA     BYTE      P1
      00000080H   SFRSYM    DATA     BYTE      P0
      000000DDH.6 SFRSYM    DATA     BIT       T4_CT
      000000DDH.2 SFRSYM    DATA     BIT       T3_CT

      00FF1390H   BLOCK     CODE     ---       LVL=0
      R7          REGSYM    ---      BYTE      TIM
      REG=7       REGSYM    ---      ---       TIMx
      00FF1390H   LINE      CODE     ---       #23
      00FF1394H   LINE      CODE     ---       #25
      00FF1398H   LINE      CODE     ---       #27
      00FF139AH   LINE      CODE     ---       #28
      00FF13A5H   LINE      CODE     ---       #29
      00FF13ADH   LINE      CODE     ---       #30
      00FF13B9H   LINE      CODE     ---       #31
      00FF13D6H   LINE      CODE     ---       #32
      00FF13E0H   LINE      CODE     ---       #33
      00FF13ECH   LINE      CODE     ---       #34
      00FF13FBH   LINE      CODE     ---       #35
      00FF1407H   LINE      CODE     ---       #36
      00FF1409H   LINE      CODE     ---       #37
      00FF1409H   LINE      CODE     ---       #39
      00FF140DH   LINE      CODE     ---       #41
      00FF140FH   LINE      CODE     ---       #42
      00FF141AH   LINE      CODE     ---       #43
      00FF1429H   LINE      CODE     ---       #44
      00FF1435H   LINE      CODE     ---       #45
      00FF1452H   LINE      CODE     ---       #46
      00FF145CH   LINE      CODE     ---       #47
      00FF1468H   LINE      CODE     ---       #48
      00FF1477H   LINE      CODE     ---       #49
      00FF1483H   LINE      CODE     ---       #50
      00FF1485H   LINE      CODE     ---       #51
      00FF1485H   LINE      CODE     ---       #53
      00FF1489H   LINE      CODE     ---       #55
      00FF148CH   LINE      CODE     ---       #56
L251 LINKER/LOCATER V4.66.93.0                                                        06/14/2026  09:42:26  PAGE 33


      00FF14A7H   LINE      CODE     ---       #57
      00FF14B1H   LINE      CODE     ---       #59
      00FF14BDH   LINE      CODE     ---       #60
      00FF14CCH   LINE      CODE     ---       #61
      00FF14DAH   LINE      CODE     ---       #62
      00FF14DCH   LINE      CODE     ---       #63
      00FF14DCH   LINE      CODE     ---       #65
      00FF14E0H   LINE      CODE     ---       #67
      00FF14E3H   LINE      CODE     ---       #68
      00FF14EFH   LINE      CODE     ---       #69
      00FF150CH   LINE      CODE     ---       #70
      00FF1516H   LINE      CODE     ---       #72
      00FF1522H   LINE      CODE     ---       #73
      00FF1531H   LINE      CODE     ---       #74
      00FF153FH   LINE      CODE     ---       #75
      00FF1541H   LINE      CODE     ---       #76
      00FF1541H   LINE      CODE     ---       #78
      00FF1545H   LINE      CODE     ---       #80
      00FF1548H   LINE      CODE     ---       #81
      00FF1554H   LINE      CODE     ---       #82
      00FF1571H   LINE      CODE     ---       #83
      00FF157BH   LINE      CODE     ---       #85
      00FF1587H   LINE      CODE     ---       #86
      00FF1596H   LINE      CODE     ---       #87
      00FF15A4H   LINE      CODE     ---       #88
      00FF15A6H   LINE      CODE     ---       #89
      00FF15A6H   LINE      CODE     ---       #90
      00FF15A8H   LINE      CODE     ---       #91
      ---         BLOCKEND  ---      ---       LVL=0

      ---         MODULE    ---      ---       STC32G_Timer_Isr
      00FF0015H   PUBLIC    CODE     ---       Timer0_ISR_Handler
      00FF0003H   PUBLIC    CODE     ---       Timer3_ISR_Handler
      00FF000EH   PUBLIC    CODE     ---       Timer4_ISR_Handler
      00000021H.4 PUBLIC    BIT      BIT       T0_1ms
      000000D0H   SFRSYM    DATA     BYTE      PSW
      0000009DH   SFRSYM    DATA     BYTE      IRCBAND
      00000097H   SFRSYM    DATA     BYTE      AUXR2
      000000EFH   SFRSYM    DATA     BYTE      AUXINTIF
      000000FDH   SFRSYM    DATA     BYTE      S4CON
      000000ACH   SFRSYM    DATA     BYTE      S3CON
      0000009AH   SFRSYM    DATA     BYTE      S2CON
      000000B7H   SFRSYM    DATA     BYTE      IPH
      000000CDH   SFRSYM    DATA     BYTE      SPSTAT
      000000DDH   SFRSYM    DATA     BYTE      T4T3M
      000000C1H   SFRSYM    DATA     BYTE      WDT_CONTR
      000000DFH   SFRSYM    DATA     BYTE      IP3
      000000F4H   SFRSYM    DATA     BYTE      USBCON
      000000B5H   SFRSYM    DATA     BYTE      IP2
      000000FFH   SFRSYM    DATA     BYTE      RSTCFG
      000000C7H   SFRSYM    DATA     BYTE      IAP_CONTR
      000000F9H   SFRSYM    DATA     BYTE      LINICR
      0000008EH   SFRSYM    DATA     BYTE      AUXR
      000000AFH   SFRSYM    DATA     BYTE      IE2
      000000E8H.4 SFRSYM    DATA     BIT       P64
      000000E8H.3 SFRSYM    DATA     BIT       P63
      00000088H   SFRSYM    DATA     BYTE      TCON
      00000089H   SFRSYM    DATA     BYTE      TMOD
      00000098H   SFRSYM    DATA     BYTE      SCON
      000000F1H   SFRSYM    DATA     BYTE      CANICR
      00000087H   SFRSYM    DATA     BYTE      PCON
      000000BCH   SFRSYM    DATA     BYTE      ADC_CONTR
      000000E7H   SFRSYM    DATA     BYTE      CMPCR2
      000000E6H   SFRSYM    DATA     BYTE      CMPCR1
      000000DEH   SFRSYM    DATA     BYTE      ADCCFG
L251 LINKER/LOCATER V4.66.93.0                                                        06/14/2026  09:42:26  PAGE 34


      000000B8H   SFRSYM    DATA     BYTE      IP
      0000008FH   SFRSYM    DATA     BYTE      INTCLKO
      000000EEH   SFRSYM    DATA     BYTE      IP3H
      000000B6H   SFRSYM    DATA     BYTE      IP2H
      000000A8H   SFRSYM    DATA     BYTE      IE
      000000BBH   SFRSYM    DATA     BYTE      P_SW3
      000000BAH   SFRSYM    DATA     BYTE      P_SW2
      000000A2H   SFRSYM    DATA     BYTE      P_SW1
      000000CEH   SFRSYM    DATA     BYTE      SPCTL
      000000F8H   SFRSYM    DATA     BYTE      P7
      000000E8H   SFRSYM    DATA     BYTE      P6
      000000C8H   SFRSYM    DATA     BYTE      P5
      000000C0H   SFRSYM    DATA     BYTE      P4
      000000B0H   SFRSYM    DATA     BYTE      P3
      000000A0H   SFRSYM    DATA     BYTE      P2
      00000090H   SFRSYM    DATA     BYTE      P1
      00000080H   SFRSYM    DATA     BYTE      P0

      00FF0015H   BLOCK     CODE     ---       LVL=0
      00FF0015H   LINE      CODE     ---       #25
      00FF0015H   LINE      CODE     ---       #28
      00FF0017H   LINE      CODE     ---       #30
      ---         BLOCKEND  ---      ---       LVL=0

      00FF0003H   BLOCK     CODE     ---       LVL=0
      00FF0003H   LINE      CODE     ---       #65
      00FF0005H   LINE      CODE     ---       #68
      00FF0007H   LINE      CODE     ---       #69
      ---         BLOCKEND  ---      ---       LVL=0

      00FF000EH   BLOCK     CODE     ---       LVL=0
      00FF000EH   LINE      CODE     ---       #78
      00FF0010H   LINE      CODE     ---       #81
      00FF0012H   LINE      CODE     ---       #82
      ---         BLOCKEND  ---      ---       LVL=0

      ---         MODULE    ---      ---       STC32G_Delay
      00FF1FFAH   PUBLIC    CODE     ---       delay_ms
      000000D0H   SFRSYM    DATA     BYTE      PSW
      0000009DH   SFRSYM    DATA     BYTE      IRCBAND
      00000097H   SFRSYM    DATA     BYTE      AUXR2
      000000EFH   SFRSYM    DATA     BYTE      AUXINTIF
      000000FDH   SFRSYM    DATA     BYTE      S4CON
      000000ACH   SFRSYM    DATA     BYTE      S3CON
      0000009AH   SFRSYM    DATA     BYTE      S2CON
      000000B7H   SFRSYM    DATA     BYTE      IPH
      000000CDH   SFRSYM    DATA     BYTE      SPSTAT
      000000DDH   SFRSYM    DATA     BYTE      T4T3M
      000000C1H   SFRSYM    DATA     BYTE      WDT_CONTR
      000000DFH   SFRSYM    DATA     BYTE      IP3
      000000F4H   SFRSYM    DATA     BYTE      USBCON
      000000B5H   SFRSYM    DATA     BYTE      IP2
      000000FFH   SFRSYM    DATA     BYTE      RSTCFG
      000000C7H   SFRSYM    DATA     BYTE      IAP_CONTR
      000000F9H   SFRSYM    DATA     BYTE      LINICR
      0000008EH   SFRSYM    DATA     BYTE      AUXR
      000000AFH   SFRSYM    DATA     BYTE      IE2
      00000088H   SFRSYM    DATA     BYTE      TCON
      00000089H   SFRSYM    DATA     BYTE      TMOD
      00000098H   SFRSYM    DATA     BYTE      SCON
      000000F1H   SFRSYM    DATA     BYTE      CANICR
      00000087H   SFRSYM    DATA     BYTE      PCON
      000000BCH   SFRSYM    DATA     BYTE      ADC_CONTR
      000000E7H   SFRSYM    DATA     BYTE      CMPCR2
      000000E6H   SFRSYM    DATA     BYTE      CMPCR1
L251 LINKER/LOCATER V4.66.93.0                                                        06/14/2026  09:42:26  PAGE 35


      000000DEH   SFRSYM    DATA     BYTE      ADCCFG
      000000B8H   SFRSYM    DATA     BYTE      IP
      0000008FH   SFRSYM    DATA     BYTE      INTCLKO
      000000EEH   SFRSYM    DATA     BYTE      IP3H
      000000B6H   SFRSYM    DATA     BYTE      IP2H
      000000A8H   SFRSYM    DATA     BYTE      IE
      000000BBH   SFRSYM    DATA     BYTE      P_SW3
      000000BAH   SFRSYM    DATA     BYTE      P_SW2
      000000A2H   SFRSYM    DATA     BYTE      P_SW1
      000000CEH   SFRSYM    DATA     BYTE      SPCTL
      000000F8H   SFRSYM    DATA     BYTE      P7
      000000E8H   SFRSYM    DATA     BYTE      P6
      000000C8H   SFRSYM    DATA     BYTE      P5
      000000C0H   SFRSYM    DATA     BYTE      P4
      000000B0H   SFRSYM    DATA     BYTE      P3
      000000A0H   SFRSYM    DATA     BYTE      P2
      00000090H   SFRSYM    DATA     BYTE      P1
      00000080H   SFRSYM    DATA     BYTE      P0

      00FF1FFAH   BLOCK     CODE     ---       LVL=0
      WR4         REGSYM    ---      WORD      ms
      00FF1FFCH   BLOCK     CODE     NEAR LAB  LVL=1
      WR6         REGSYM    ---      WORD      i
      ---         BLOCKEND  ---      ---       LVL=1
      00FF1FFAH   LINE      CODE     ---       #25
      00FF1FFCH   LINE      CODE     ---       #26
      00FF1FFCH   LINE      CODE     ---       #28
      00FF1FFCH   LINE      CODE     ---       #29
      00FF2000H   LINE      CODE     ---       #30
      00FF2008H   LINE      CODE     ---       #31
      00FF2010H   LINE      CODE     ---       #32
      ---         BLOCKEND  ---      ---       LVL=0

      ---         MODULE    ---      ---       font
      00FF00DEH   PUBLIC    CODE     ---       F6X8
      00FF0306H   PUBLIC    CODE     ---       BMP1
      00FF0706H   PUBLIC    CODE     ---       Hzk
      00FF0786H   PUBLIC    CODE     ---       F8X16
      000000D0H   SFRSYM    DATA     BYTE      PSW
      0000009DH   SFRSYM    DATA     BYTE      IRCBAND
      00000097H   SFRSYM    DATA     BYTE      AUXR2
      000000EFH   SFRSYM    DATA     BYTE      AUXINTIF
      000000FDH   SFRSYM    DATA     BYTE      S4CON
      000000ACH   SFRSYM    DATA     BYTE      S3CON
      0000009AH   SFRSYM    DATA     BYTE      S2CON
      000000B7H   SFRSYM    DATA     BYTE      IPH
      000000CDH   SFRSYM    DATA     BYTE      SPSTAT
      000000DDH   SFRSYM    DATA     BYTE      T4T3M
      000000C1H   SFRSYM    DATA     BYTE      WDT_CONTR
      000000DFH   SFRSYM    DATA     BYTE      IP3
      000000F4H   SFRSYM    DATA     BYTE      USBCON
      000000B5H   SFRSYM    DATA     BYTE      IP2
      000000FFH   SFRSYM    DATA     BYTE      RSTCFG
      000000C7H   SFRSYM    DATA     BYTE      IAP_CONTR
      000000F9H   SFRSYM    DATA     BYTE      LINICR
      0000008EH   SFRSYM    DATA     BYTE      AUXR
      000000AFH   SFRSYM    DATA     BYTE      IE2
      00000088H   SFRSYM    DATA     BYTE      TCON
      00000089H   SFRSYM    DATA     BYTE      TMOD
      00000098H   SFRSYM    DATA     BYTE      SCON
      000000F1H   SFRSYM    DATA     BYTE      CANICR
      00000087H   SFRSYM    DATA     BYTE      PCON
      000000BCH   SFRSYM    DATA     BYTE      ADC_CONTR
      000000E7H   SFRSYM    DATA     BYTE      CMPCR2
      000000E6H   SFRSYM    DATA     BYTE      CMPCR1
L251 LINKER/LOCATER V4.66.93.0                                                        06/14/2026  09:42:26  PAGE 36


      000000DEH   SFRSYM    DATA     BYTE      ADCCFG
      000000B8H   SFRSYM    DATA     BYTE      IP
      0000008FH   SFRSYM    DATA     BYTE      INTCLKO
      000000EEH   SFRSYM    DATA     BYTE      IP3H
      000000B6H   SFRSYM    DATA     BYTE      IP2H
      000000A8H   SFRSYM    DATA     BYTE      IE
      000000BBH   SFRSYM    DATA     BYTE      P_SW3
      000000BAH   SFRSYM    DATA     BYTE      P_SW2
      000000A2H   SFRSYM    DATA     BYTE      P_SW1
      000000CEH   SFRSYM    DATA     BYTE      SPCTL
      000000F8H   SFRSYM    DATA     BYTE      P7
      000000E8H   SFRSYM    DATA     BYTE      P6
      000000C8H   SFRSYM    DATA     BYTE      P5
      000000C0H   SFRSYM    DATA     BYTE      P4
      000000B0H   SFRSYM    DATA     BYTE      P3
      000000A0H   SFRSYM    DATA     BYTE      P2
      00000090H   SFRSYM    DATA     BYTE      P1
      00000080H   SFRSYM    DATA     BYTE      P0

      ---         MODULE    ---      ---       oled
      00FF1F37H   PUBLIC    CODE     ---       oled_IIC_SendCommand
      00FF00A6H   PUBLIC    CODE     ---       oled_clear
      00FF1975H   PUBLIC    CODE     ---       oled_Init
      00FF1EEEH   PUBLIC    CODE     ---       oled_IIC_SendData
      000000D0H   SFRSYM    DATA     BYTE      PSW
      0000009DH   SFRSYM    DATA     BYTE      IRCBAND
      00000097H   SFRSYM    DATA     BYTE      AUXR2
      000000EFH   SFRSYM    DATA     BYTE      AUXINTIF
      000000FDH   SFRSYM    DATA     BYTE      S4CON
      000000ACH   SFRSYM    DATA     BYTE      S3CON
      0000009AH   SFRSYM    DATA     BYTE      S2CON
      000000B7H   SFRSYM    DATA     BYTE      IPH
      000000CDH   SFRSYM    DATA     BYTE      SPSTAT
      000000DDH   SFRSYM    DATA     BYTE      T4T3M
      000000C1H   SFRSYM    DATA     BYTE      WDT_CONTR
      000000DFH   SFRSYM    DATA     BYTE      IP3
      000000F4H   SFRSYM    DATA     BYTE      USBCON
      000000B5H   SFRSYM    DATA     BYTE      IP2
      000000FFH   SFRSYM    DATA     BYTE      RSTCFG
      000000C7H   SFRSYM    DATA     BYTE      IAP_CONTR
      000000F9H   SFRSYM    DATA     BYTE      LINICR
      0000008EH   SFRSYM    DATA     BYTE      AUXR
      000000AFH   SFRSYM    DATA     BYTE      IE2
      00000088H   SFRSYM    DATA     BYTE      TCON
      00000089H   SFRSYM    DATA     BYTE      TMOD
      00000098H   SFRSYM    DATA     BYTE      SCON
      000000F1H   SFRSYM    DATA     BYTE      CANICR
      00000087H   SFRSYM    DATA     BYTE      PCON
      000000BCH   SFRSYM    DATA     BYTE      ADC_CONTR
      000000E7H   SFRSYM    DATA     BYTE      CMPCR2
      000000E6H   SFRSYM    DATA     BYTE      CMPCR1
      000000DEH   SFRSYM    DATA     BYTE      ADCCFG
      000000B8H   SFRSYM    DATA     BYTE      IP
      0000008FH   SFRSYM    DATA     BYTE      INTCLKO
      000000EEH   SFRSYM    DATA     BYTE      IP3H
      000000B6H   SFRSYM    DATA     BYTE      IP2H
      000000A8H   SFRSYM    DATA     BYTE      IE
      000000BBH   SFRSYM    DATA     BYTE      P_SW3
      000000BAH   SFRSYM    DATA     BYTE      P_SW2
      000000A2H   SFRSYM    DATA     BYTE      P_SW1
      000000CEH   SFRSYM    DATA     BYTE      SPCTL
      000000F8H   SFRSYM    DATA     BYTE      P7
      000000E8H   SFRSYM    DATA     BYTE      P6
      000000C8H   SFRSYM    DATA     BYTE      P5
      000000C0H   SFRSYM    DATA     BYTE      P4
L251 LINKER/LOCATER V4.66.93.0                                                        06/14/2026  09:42:26  PAGE 37


      000000B0H   SFRSYM    DATA     BYTE      P3
      000000A0H   SFRSYM    DATA     BYTE      P2
      00000090H   SFRSYM    DATA     BYTE      P1
      00000080H   SFRSYM    DATA     BYTE      P0

      00FF1F37H   BLOCK     CODE     ---       LVL=0
      R15         REGSYM    ---      BYTE      IIC_Command
      00FF1F37H   LINE      CODE     ---       #4
      00FF1F3BH   LINE      CODE     ---       #6
      00FF1F3EH   LINE      CODE     ---       #7
      00FF1F43H   LINE      CODE     ---       #8
      00FF1F46H   LINE      CODE     ---       #9
      00FF1F4AH   LINE      CODE     ---       #10
      00FF1F4DH   LINE      CODE     ---       #11
      00FF1F52H   LINE      CODE     ---       #12
      00FF1F55H   LINE      CODE     ---       #13
      00FF1F58H   LINE      CODE     ---       #14
      ---         BLOCKEND  ---      ---       LVL=0

      00FF1EEEH   BLOCK     CODE     ---       LVL=0
      R15         REGSYM    ---      BYTE      IIC_Data
      00FF1EEEH   LINE      CODE     ---       #17
      00FF1EF2H   LINE      CODE     ---       #19
      00FF1EF5H   LINE      CODE     ---       #20
      00FF1EFAH   LINE      CODE     ---       #21
      00FF1EFDH   LINE      CODE     ---       #22
      00FF1F02H   LINE      CODE     ---       #23
      00FF1F05H   LINE      CODE     ---       #24
      00FF1F0AH   LINE      CODE     ---       #25
      00FF1F0DH   LINE      CODE     ---       #26
      00FF1F10H   LINE      CODE     ---       #27
      ---         BLOCKEND  ---      ---       LVL=0

      00FF00A6H   BLOCK     CODE     ---       LVL=0
      00FF00A8H   BLOCK     CODE     NEAR LAB  LVL=1
      R15         REGSYM    ---      BYTE      i
      R14         REGSYM    ---      BYTE      j
      ---         BLOCKEND  ---      ---       LVL=1
      00FF00A6H   LINE      CODE     ---       #30
      00FF00A8H   LINE      CODE     ---       #31
      00FF00A8H   LINE      CODE     ---       #33
      00FF00AAH   LINE      CODE     ---       #35
      00FF00B1H   LINE      CODE     ---       #36
      00FF00B5H   LINE      CODE     ---       #37
      00FF00BAH   LINE      CODE     ---       #38
      00FF00BCH   LINE      CODE     ---       #40
      00FF00C0H   LINE      CODE     ---       #41
      00FF00C7H   LINE      CODE     ---       #42
      00FF00CEH   LINE      CODE     ---       #43
      ---         BLOCKEND  ---      ---       LVL=0

      00FF1975H   BLOCK     CODE     ---       LVL=0
      00FF1975H   LINE      CODE     ---       #46
      00FF1975H   LINE      CODE     ---       #48
      00FF1978H   LINE      CODE     ---       #49
      00FF197FH   LINE      CODE     ---       #50
      00FF1984H   LINE      CODE     ---       #52
      00FF1989H   LINE      CODE     ---       #53
      00FF198EH   LINE      CODE     ---       #55
      00FF1993H   LINE      CODE     ---       #56
      00FF1998H   LINE      CODE     ---       #58
      00FF199DH   LINE      CODE     ---       #59
      00FF19A1H   LINE      CODE     ---       #61
      00FF19A5H   LINE      CODE     ---       #62
      00FF19AAH   LINE      CODE     ---       #63
L251 LINKER/LOCATER V4.66.93.0                                                        06/14/2026  09:42:26  PAGE 38


      00FF19AFH   LINE      CODE     ---       #65
      00FF19B4H   LINE      CODE     ---       #66
      00FF19B9H   LINE      CODE     ---       #68
      00FF19BEH   LINE      CODE     ---       #69
      00FF19C3H   LINE      CODE     ---       #71
      00FF19C8H   LINE      CODE     ---       #73
      00FF19CDH   LINE      CODE     ---       #74
      00FF19D2H   LINE      CODE     ---       #75
      00FF19D7H   LINE      CODE     ---       #77
      00FF19DCH   LINE      CODE     ---       #78
      00FF19E1H   LINE      CODE     ---       #80
      00FF19E6H   LINE      CODE     ---       #81
      00FF19EBH   LINE      CODE     ---       #83
      00FF19F0H   LINE      CODE     ---       #84
      00FF19F5H   LINE      CODE     ---       #86
      00FF19FAH   LINE      CODE     ---       #87
      00FF19FFH   LINE      CODE     ---       #88
      00FF1A04H   LINE      CODE     ---       #89
      ---         BLOCKEND  ---      ---       LVL=0
      R15         REGSYM    ---      BYTE      fill_Data
      R14         REGSYM    ---      BYTE      i
      R13         REGSYM    ---      BYTE      j
      R15         REGSYM    ---      BYTE      x
      R10         REGSYM    ---      BYTE      y
      R3          REGSYM    ---      BYTE      m
      R10         REGSYM    ---      BYTE      n
      WR6         REGSYM    ---      WORD      result
      WR14        REGSYM    ---      INT       num
      R12         REGSYM    ---      BYTE      len
      R13         REGSYM    ---      BYTE      size
      R14         REGSYM    ---      BYTE      x
      R15         REGSYM    ---      BYTE      y
      R6          REGSYM    ---      BYTE      ch
      R13         REGSYM    ---      BYTE      size
      R12         REGSYM    ---      BYTE      i
      REG=3       REGSYM    ---      ---       p
      R13         REGSYM    ---      BYTE      x
      R14         REGSYM    ---      BYTE      y
      R15         REGSYM    ---      BYTE      bit_temp
      R12         REGSYM    ---      BYTE      i
      R10         REGSYM    ---      BYTE      y0
      REG=3       REGSYM    ---      ---       BMP

      ---         MODULE    ---      ---       iic
      00FF208BH   PUBLIC    CODE     ---       iic_Wait_Ack
      00FF1F5BH   PUBLIC    CODE     ---       iic_SendData
      00FF1FE2H   PUBLIC    CODE     ---       iic_Start
      00FF2027H   PUBLIC    CODE     ---       iic_Init
      00FF203CH   PUBLIC    CODE     ---       iic_Stop
      000000D0H   SFRSYM    DATA     BYTE      PSW
      0000009DH   SFRSYM    DATA     BYTE      IRCBAND
      00000097H   SFRSYM    DATA     BYTE      AUXR2
      000000EFH   SFRSYM    DATA     BYTE      AUXINTIF
      000000FDH   SFRSYM    DATA     BYTE      S4CON
      000000ACH   SFRSYM    DATA     BYTE      S3CON
      0000009AH   SFRSYM    DATA     BYTE      S2CON
      000000B7H   SFRSYM    DATA     BYTE      IPH
      000000CDH   SFRSYM    DATA     BYTE      SPSTAT
      000000DDH   SFRSYM    DATA     BYTE      T4T3M
      000000C1H   SFRSYM    DATA     BYTE      WDT_CONTR
      000000DFH   SFRSYM    DATA     BYTE      IP3
      000000F4H   SFRSYM    DATA     BYTE      USBCON
      000000B5H   SFRSYM    DATA     BYTE      IP2
      000000FFH   SFRSYM    DATA     BYTE      RSTCFG
      000000C7H   SFRSYM    DATA     BYTE      IAP_CONTR
L251 LINKER/LOCATER V4.66.93.0                                                        06/14/2026  09:42:26  PAGE 39


      000000F9H   SFRSYM    DATA     BYTE      LINICR
      0000008EH   SFRSYM    DATA     BYTE      AUXR
      000000AFH   SFRSYM    DATA     BYTE      IE2
      000000C8H.4 SFRSYM    DATA     BIT       P54
      000000B0H.3 SFRSYM    DATA     BIT       P33
      00000088H   SFRSYM    DATA     BYTE      TCON
      00000089H   SFRSYM    DATA     BYTE      TMOD
      00000098H   SFRSYM    DATA     BYTE      SCON
      000000F1H   SFRSYM    DATA     BYTE      CANICR
      00000087H   SFRSYM    DATA     BYTE      PCON
      000000BCH   SFRSYM    DATA     BYTE      ADC_CONTR
      000000E7H   SFRSYM    DATA     BYTE      CMPCR2
      000000E6H   SFRSYM    DATA     BYTE      CMPCR1
      000000DEH   SFRSYM    DATA     BYTE      ADCCFG
      000000B8H   SFRSYM    DATA     BYTE      IP
      0000008FH   SFRSYM    DATA     BYTE      INTCLKO
      000000EEH   SFRSYM    DATA     BYTE      IP3H
      000000B6H   SFRSYM    DATA     BYTE      IP2H
      000000A8H   SFRSYM    DATA     BYTE      IE
      000000BBH   SFRSYM    DATA     BYTE      P_SW3
      000000BAH   SFRSYM    DATA     BYTE      P_SW2
      000000A2H   SFRSYM    DATA     BYTE      P_SW1
      000000CEH   SFRSYM    DATA     BYTE      SPCTL
      000000F8H   SFRSYM    DATA     BYTE      P7
      000000E8H   SFRSYM    DATA     BYTE      P6
      000000C8H   SFRSYM    DATA     BYTE      P5
      000000C0H   SFRSYM    DATA     BYTE      P4
      000000C9H   SFRSYM    DATA     BYTE      P5M1
      000000B0H   SFRSYM    DATA     BYTE      P3
      000000CAH   SFRSYM    DATA     BYTE      P5M0
      000000A0H   SFRSYM    DATA     BYTE      P2
      000000B1H   SFRSYM    DATA     BYTE      P3M1
      00000090H   SFRSYM    DATA     BYTE      P1
      000000B2H   SFRSYM    DATA     BYTE      P3M0
      00000080H   SFRSYM    DATA     BYTE      P0

      00FF2027H   BLOCK     CODE     ---       LVL=0
      00FF2027H   LINE      CODE     ---       #4
      00FF2027H   LINE      CODE     ---       #14
      00FF202AH   LINE      CODE     ---       #15
      00FF202DH   LINE      CODE     ---       #17
      00FF2030H   LINE      CODE     ---       #18
      00FF2033H   LINE      CODE     ---       #21
      00FF2035H   LINE      CODE     ---       #22
      00FF2037H   LINE      CODE     ---       #24
      00FF203BH   LINE      CODE     ---       #25
      ---         BLOCKEND  ---      ---       LVL=0

      00FF1FE2H   BLOCK     CODE     ---       LVL=0
      00FF1FE2H   LINE      CODE     ---       #28
      00FF1FE2H   LINE      CODE     ---       #30
      00FF1FE4H   LINE      CODE     ---       #31
      00FF1FE9H   LINE      CODE     ---       #32
      00FF1FEBH   LINE      CODE     ---       #33
      00FF1FF0H   LINE      CODE     ---       #34
      00FF1FF2H   LINE      CODE     ---       #35
      00FF1FF7H   LINE      CODE     ---       #36
      00FF1FF9H   LINE      CODE     ---       #37
      ---         BLOCKEND  ---      ---       LVL=0

      00FF203CH   BLOCK     CODE     ---       LVL=0
      00FF203CH   LINE      CODE     ---       #40
      00FF203CH   LINE      CODE     ---       #42
      00FF203EH   LINE      CODE     ---       #43
      00FF2042H   LINE      CODE     ---       #44
L251 LINKER/LOCATER V4.66.93.0                                                        06/14/2026  09:42:26  PAGE 40


      00FF2044H   LINE      CODE     ---       #45
      00FF2049H   LINE      CODE     ---       #46
      00FF204BH   LINE      CODE     ---       #47
      00FF2050H   LINE      CODE     ---       #48
      ---         BLOCKEND  ---      ---       LVL=0

      00FF208BH   BLOCK     CODE     ---       LVL=0
      R11         REGSYM    ---      BYTE      ACK
      00FF208BH   LINE      CODE     ---       #70
      00FF208BH   LINE      CODE     ---       #71
      00FF208BH   LINE      CODE     ---       #72
      00FF208BH   LINE      CODE     ---       #73
      00FF208DH   LINE      CODE     ---       #74
      00FF208EH   LINE      CODE     ---       #75
      00FF2090H   LINE      CODE     ---       #76
      00FF2091H   LINE      CODE     ---       #77
      00FF2094H   LINE      CODE     ---       #79
      00FF2096H   LINE      CODE     ---       #80
      00FF2098H   LINE      CODE     ---       #83
      00FF2099H   LINE      CODE     ---       #84
      00FF2099H   LINE      CODE     ---       #85
      00FF209BH   LINE      CODE     ---       #86
      00FF209DH   LINE      CODE     ---       #87
      00FF209DH   LINE      CODE     ---       #88
      ---         BLOCKEND  ---      ---       LVL=0

      00FF1F5BH   BLOCK     CODE     ---       LVL=0
      R6          REGSYM    ---      BYTE      dat
      00FF1F5DH   BLOCK     CODE     NEAR LAB  LVL=1
      R7          REGSYM    ---      BYTE      i
      ---         BLOCKEND  ---      ---       LVL=1
      00FF1F5BH   LINE      CODE     ---       #91
      00FF1F5DH   LINE      CODE     ---       #92
      00FF1F5DH   LINE      CODE     ---       #94
      00FF1F60H   LINE      CODE     ---       #96
      00FF1F65H   LINE      CODE     ---       #98
      00FF1F67H   LINE      CODE     ---       #99
      00FF1F69H   LINE      CODE     ---       #102
      00FF1F6BH   LINE      CODE     ---       #103
      00FF1F6BH   LINE      CODE     ---       #104
      00FF1F6DH   LINE      CODE     ---       #105
      00FF1F6FH   LINE      CODE     ---       #106
      00FF1F71H   LINE      CODE     ---       #107
      00FF1F73H   LINE      CODE     ---       #108
      00FF1F75H   LINE      CODE     ---       #109
      00FF1F77H   LINE      CODE     ---       #110
      00FF1F7BH   LINE      CODE     ---       #111
      ---         BLOCKEND  ---      ---       LVL=0
      R7          REGSYM    ---      BYTE      i
      R10         REGSYM    ---      BYTE      receive

      ---         MODULE    ---      ---       STC32G_Soft_I2C
      000000D0H   SFRSYM    DATA     BYTE      PSW
      0000009DH   SFRSYM    DATA     BYTE      IRCBAND
      000000D0H.5 SFRSYM    DATA     BIT       F0
      00000097H   SFRSYM    DATA     BYTE      AUXR2
      000000EFH   SFRSYM    DATA     BYTE      AUXINTIF
      000000FDH   SFRSYM    DATA     BYTE      S4CON
      000000ACH   SFRSYM    DATA     BYTE      S3CON
      0000009AH   SFRSYM    DATA     BYTE      S2CON
      00000080H.0 SFRSYM    DATA     BIT       SCL
      000000B7H   SFRSYM    DATA     BYTE      IPH
      000000CDH   SFRSYM    DATA     BYTE      SPSTAT
      000000DDH   SFRSYM    DATA     BYTE      T4T3M
      000000C1H   SFRSYM    DATA     BYTE      WDT_CONTR
L251 LINKER/LOCATER V4.66.93.0                                                        06/14/2026  09:42:26  PAGE 41


      00000080H.1 SFRSYM    DATA     BIT       SDA
      000000DFH   SFRSYM    DATA     BYTE      IP3
      000000F4H   SFRSYM    DATA     BYTE      USBCON
      000000B5H   SFRSYM    DATA     BYTE      IP2
      000000FFH   SFRSYM    DATA     BYTE      RSTCFG
      000000C7H   SFRSYM    DATA     BYTE      IAP_CONTR
      000000F9H   SFRSYM    DATA     BYTE      LINICR
      0000008EH   SFRSYM    DATA     BYTE      AUXR
      000000AFH   SFRSYM    DATA     BYTE      IE2
      00000088H   SFRSYM    DATA     BYTE      TCON
      00000089H   SFRSYM    DATA     BYTE      TMOD
      00000098H   SFRSYM    DATA     BYTE      SCON
      000000F1H   SFRSYM    DATA     BYTE      CANICR
      00000087H   SFRSYM    DATA     BYTE      PCON
      000000BCH   SFRSYM    DATA     BYTE      ADC_CONTR
      000000E7H   SFRSYM    DATA     BYTE      CMPCR2
      000000E6H   SFRSYM    DATA     BYTE      CMPCR1
      000000DEH   SFRSYM    DATA     BYTE      ADCCFG
      000000B8H   SFRSYM    DATA     BYTE      IP
      0000008FH   SFRSYM    DATA     BYTE      INTCLKO
      000000EEH   SFRSYM    DATA     BYTE      IP3H
      000000B6H   SFRSYM    DATA     BYTE      IP2H
      000000A8H   SFRSYM    DATA     BYTE      IE
      000000BBH   SFRSYM    DATA     BYTE      P_SW3
      000000BAH   SFRSYM    DATA     BYTE      P_SW2
      000000A2H   SFRSYM    DATA     BYTE      P_SW1
      000000CEH   SFRSYM    DATA     BYTE      SPCTL
      000000F8H   SFRSYM    DATA     BYTE      P7
      000000E8H   SFRSYM    DATA     BYTE      P6
      000000C8H   SFRSYM    DATA     BYTE      P5
      000000C0H   SFRSYM    DATA     BYTE      P4
      000000B0H   SFRSYM    DATA     BYTE      P3
      000000A0H   SFRSYM    DATA     BYTE      P2
      00000090H   SFRSYM    DATA     BYTE      P1
      00000080H   SFRSYM    DATA     BYTE      P0
      R10         REGSYM    ---      BYTE      dly
      R15         REGSYM    ---      BYTE      dat
      R14         REGSYM    ---      BYTE      i
      R15         REGSYM    ---      BYTE      i
      R14         REGSYM    ---      BYTE      dat
      REG=3       REGSYM    ---      ---       p
      REG=3       REGSYM    ---      ---       p

      ---         MODULE    ---      ---       ?C_START
      00FF0000H   PUBLIC    CODE     ---       ?C?STARTUP
      00FF0000H   PUBLIC    CODE     ---       ?C_STARTUP

      ---         MODULE    ---      ---       ?C?INITEDATA
      00FF1CE7H   PUBLIC    CODE     ---       ?C?INITEDATA

      ---         MODULE    ---      ---       ?C?SIDIV
      00FF181DH   PUBLIC    CODE     ---       ?C?SIDIV

      ---         MODULE    ---      ---       ?C?LIMUL
      00FF184FH   PUBLIC    CODE     ---       ?C?LIMUL

      ---         MODULE    ---      ---       ?C?SLDIV
      00FF1858H   PUBLIC    CODE     NEAR LAB  ?C?SLDIV

      ---         MODULE    ---      ---       ?C?INITEDATA_END
      00FF2131H   PUBLIC    HCONST   WORD      ?C?INITEDATA_END

      ---         MODULE    ---      ---       ?C?ULDIV
      00FF188EH   PUBLIC    CODE     NEAR LAB  ?C?ULDIV
      00FF188CH   PUBLIC    CODE     NEAR LAB  ?C?ULIDIV
L251 LINKER/LOCATER V4.66.93.0                                                        06/14/2026  09:42:26  PAGE 42



Program Size: data=9.6 edata+hdata=328 xdata=0 const=131 code=8337
L251 RUN COMPLETE.  0 WARNING(S),  0 ERROR(S)
